; ModuleID = 'func2.cpp'
source_filename = "func2.cpp"
target datalayout = "e-m:w-p270:32:32-p271:32:32-p272:64:64-i64:64-f80:128-n8:16:32:64-S128"
target triple = "x86_64-pc-windows-msvc19.28.29915"

%rtti.TypeDescriptor30 = type { i8**, i8*, [31 x i8] }
%eh.CatchableType = type { i32, i32, i32, i32, i32, i32, i32 }
%rtti.TypeDescriptor19 = type { i8**, i8*, [20 x i8] }
%eh.CatchableTypeArray.3 = type { i32, [3 x i32] }
%eh.ThrowInfo = type { i32, i32, i32, i32 }
%rtti.CompleteObjectLocator = type { i32, i32, i32, i32, i32, i32 }
%rtti.ClassHierarchyDescriptor = type { i32, i32, i32, i32 }
%rtti.BaseClassDescriptor = type { i32, i32, i32, i32, i32, i32, i32 }
%"class.std::basic_string" = type { %"class.std::_Compressed_pair" }
%"class.std::_Compressed_pair" = type { %"class.std::_String_val" }
%"class.std::_String_val" = type { %"union.std::_String_val<std::_Simple_types<char>>::_Bxty", i64, i64 }
%"union.std::_String_val<std::_Simple_types<char>>::_Bxty" = type { i8*, [8 x i8] }
%"struct.std::_Zero_then_variadic_args_t" = type { i8 }
%"struct.std::_Fake_allocator" = type { i8 }
%"struct.std::_Fake_proxy_ptr_impl" = type { i8 }
%"struct.std::_Container_base0" = type { i8 }
%"class.std::allocator" = type { i8 }
%class.anon = type { i8 }
%"class.std::bad_array_new_length" = type { %"class.std::bad_alloc" }
%"class.std::bad_alloc" = type { %"class.std::exception" }
%"class.std::exception" = type { i32 (...)**, %struct.__std_exception_data }
%struct.__std_exception_data = type { i8*, i8 }

$"??0?$basic_string@DU?$char_traits@D@std@@V?$allocator@D@2@@std@@QEAA@QEBD@Z" = comdat any

$"??$?0$$V@?$_Compressed_pair@V?$allocator@D@std@@V?$_String_val@U?$_Simple_types@D@std@@@2@$00@std@@QEAA@U_Zero_then_variadic_args_t@1@@Z" = comdat any

$"??0_Fake_proxy_ptr_impl@std@@QEAA@AEBU_Fake_allocator@1@AEBU_Container_base0@1@@Z" = comdat any

$"?_Tidy_init@?$basic_string@DU?$char_traits@D@std@@V?$allocator@D@2@@std@@AEAAXXZ" = comdat any

$"?assign@?$basic_string@DU?$char_traits@D@std@@V?$allocator@D@2@@std@@QEAAAEAV12@QEBD@Z" = comdat any

$"?_Release@_Fake_proxy_ptr_impl@std@@QEAAXXZ" = comdat any

$"??1?$_Compressed_pair@V?$allocator@D@std@@V?$_String_val@U?$_Simple_types@D@std@@@2@$00@std@@QEAA@XZ" = comdat any

$"??0?$allocator@D@std@@QEAA@XZ" = comdat any

$"??0?$_String_val@U?$_Simple_types@D@std@@@std@@QEAA@XZ" = comdat any

$"??0_Bxty@?$_String_val@U?$_Simple_types@D@std@@@std@@QEAA@XZ" = comdat any

$"?assign@?$_Narrow_char_traits@DH@std@@SAXAEADAEBD@Z" = comdat any

$"?assign@?$basic_string@DU?$char_traits@D@std@@V?$allocator@D@2@@std@@QEAAAEAV12@QEBD_K@Z" = comdat any

$"??$_Convert_size@_K@std@@YA_K_K@Z" = comdat any

$"?length@?$_Narrow_char_traits@DH@std@@SA_KQEBD@Z" = comdat any

$"?_Myptr@?$_String_val@U?$_Simple_types@D@std@@@std@@QEAAPEADXZ" = comdat any

$"?move@?$_Char_traits@DH@std@@SAPEADQEADQEBD_K@Z" = comdat any

$"??$_Reallocate_for@V<lambda_1>@?0??assign@?$basic_string@DU?$char_traits@D@std@@V?$allocator@D@2@@std@@QEAAAEAV34@QEBD_K@Z@PEBD@?$basic_string@DU?$char_traits@D@std@@V?$allocator@D@2@@std@@AEAAAEAV01@_KV<lambda_1>@?0??assign@01@QEAAAEAV01@QEBD0@Z@PEBD@Z" = comdat any

$"?_Large_string_engaged@?$_String_val@U?$_Simple_types@D@std@@@std@@QEBA_NXZ" = comdat any

$"??$_Unfancy@D@std@@YAPEADPEAD@Z" = comdat any

$"?max_size@?$basic_string@DU?$char_traits@D@std@@V?$allocator@D@2@@std@@QEBA_KXZ" = comdat any

$"?_Xlen_string@std@@YAXXZ" = comdat any

$"?_Calculate_growth@?$basic_string@DU?$char_traits@D@std@@V?$allocator@D@2@@std@@AEBA_K_K@Z" = comdat any

$"?_Getal@?$basic_string@DU?$char_traits@D@std@@V?$allocator@D@2@@std@@AEAAAEAV?$allocator@D@2@XZ" = comdat any

$"?allocate@?$allocator@D@std@@QEAAPEAD_K@Z" = comdat any

$"?_Orphan_all@_Container_base0@std@@QEAAXXZ" = comdat any

$"??R<lambda_1>@?0??assign@?$basic_string@DU?$char_traits@D@std@@V?$allocator@D@2@@std@@QEAAAEAV23@QEBD_K@Z@QEBA?A?<auto>@@QEAD10@Z" = comdat any

$"?deallocate@?$allocator@D@std@@QEAAXQEAD_K@Z" = comdat any

$"??$_Construct_in_place@PEADAEBQEAD@std@@YAXAEAPEADAEBQEAD@Z" = comdat any

$"?max_size@?$_Default_allocator_traits@V?$allocator@D@std@@@std@@SA_KAEBV?$allocator@D@2@@Z" = comdat any

$"?_Getal@?$basic_string@DU?$char_traits@D@std@@V?$allocator@D@2@@std@@AEBAAEBV?$allocator@D@2@XZ" = comdat any

$"??$max@_K@std@@YAAEB_KAEB_K0@Z" = comdat any

$"??$min@_K@std@@YAAEB_KAEB_K0@Z" = comdat any

$"?max@?$numeric_limits@_J@std@@SA_JXZ" = comdat any

$"?_Get_first@?$_Compressed_pair@V?$allocator@D@std@@V?$_String_val@U?$_Simple_types@D@std@@@2@$00@std@@QEBAAEBV?$allocator@D@2@XZ" = comdat any

$"?_Calculate_growth@?$basic_string@DU?$char_traits@D@std@@V?$allocator@D@2@@std@@CA_K_K00@Z" = comdat any

$"?_Get_first@?$_Compressed_pair@V?$allocator@D@std@@V?$_String_val@U?$_Simple_types@D@std@@@2@$00@std@@QEAAAEAV?$allocator@D@2@XZ" = comdat any

$"??$_Allocate@$0BA@U_Default_allocate_traits@std@@$0A@@std@@YAPEAX_K@Z" = comdat any

$"??$_Get_size_of_n@$00@std@@YA_K_K@Z" = comdat any

$"??$_Allocate_manually_vector_aligned@U_Default_allocate_traits@std@@@std@@YAPEAX_K@Z" = comdat any

$"?_Allocate@_Default_allocate_traits@std@@SAPEAX_K@Z" = comdat any

$"?_Throw_bad_array_new_length@std@@YAXXZ" = comdat any

$"??0bad_array_new_length@std@@QEAA@XZ" = comdat any

$"??0bad_array_new_length@std@@QEAA@AEBV01@@Z" = comdat any

$"??0bad_alloc@std@@QEAA@AEBV01@@Z" = comdat any

$"??0exception@std@@QEAA@AEBV01@@Z" = comdat any

$"??1exception@std@@UEAA@XZ" = comdat any

$"??0bad_alloc@std@@AEAA@QEBD@Z" = comdat any

$"??_Gbad_array_new_length@std@@UEAAPEAXI@Z" = comdat any

$"?what@exception@std@@UEBAPEBDXZ" = comdat any

$"??0exception@std@@QEAA@QEBDH@Z" = comdat any

$"??_Gbad_alloc@std@@UEAAPEAXI@Z" = comdat any

$"??_Gexception@std@@UEAAPEAXI@Z" = comdat any

$"?copy@?$_Char_traits@DH@std@@SAPEADQEADQEBD_K@Z" = comdat any

$"??$_Deallocate@$0BA@$0A@@std@@YAXPEAX_K@Z" = comdat any

$"?_Adjust_manually_vector_aligned@std@@YAXAEAPEAXAEA_K@Z" = comdat any

$"??$_Voidify_iter@PEAPEAD@std@@YAPEAXPEAPEAD@Z" = comdat any

$"??$addressof@PEAD@std@@YAPEAPEADAEAPEAD@Z" = comdat any

$"??$forward@AEBQEAD@std@@YAAEBQEADAEBQEAD@Z" = comdat any

$"??1?$_String_val@U?$_Simple_types@D@std@@@std@@QEAA@XZ" = comdat any

$"??1_Bxty@?$_String_val@U?$_Simple_types@D@std@@@std@@QEAA@XZ" = comdat any

$"??_C@_0P@MFKBACLO@This?5is?5func2?$CB?$AA@" = comdat any

$"??_C@_0BA@JFNIOLAK@string?5too?5long?$AA@" = comdat any

$"??_R0?AVbad_array_new_length@std@@@8" = comdat any

$"_CT??_R0?AVbad_array_new_length@std@@@8??0bad_array_new_length@std@@QEAA@AEBV01@@Z24" = comdat any

$"??_R0?AVbad_alloc@std@@@8" = comdat any

$"_CT??_R0?AVbad_alloc@std@@@8??0bad_alloc@std@@QEAA@AEBV01@@Z24" = comdat any

$"??_R0?AVexception@std@@@8" = comdat any

$"_CT??_R0?AVexception@std@@@8??0exception@std@@QEAA@AEBV01@@Z24" = comdat any

$"_CTA3?AVbad_array_new_length@std@@" = comdat any

$"_TI3?AVbad_array_new_length@std@@" = comdat any

$"??_C@_0BF@KINCDENJ@bad?5array?5new?5length?$AA@" = comdat any

$"??_7bad_array_new_length@std@@6B@" = comdat largest

$"??_R4bad_array_new_length@std@@6B@" = comdat any

$"??_R3bad_array_new_length@std@@8" = comdat any

$"??_R2bad_array_new_length@std@@8" = comdat any

$"??_R1A@?0A@EA@bad_array_new_length@std@@8" = comdat any

$"??_R1A@?0A@EA@bad_alloc@std@@8" = comdat any

$"??_R3bad_alloc@std@@8" = comdat any

$"??_R2bad_alloc@std@@8" = comdat any

$"??_R1A@?0A@EA@exception@std@@8" = comdat any

$"??_R3exception@std@@8" = comdat any

$"??_R2exception@std@@8" = comdat any

$"??_7bad_alloc@std@@6B@" = comdat largest

$"??_R4bad_alloc@std@@6B@" = comdat any

$"??_7exception@std@@6B@" = comdat largest

$"??_R4exception@std@@6B@" = comdat any

$"??_C@_0BC@EOODALEL@Unknown?5exception?$AA@" = comdat any

@"??_C@_0P@MFKBACLO@This?5is?5func2?$CB?$AA@" = linkonce_odr dso_local unnamed_addr constant [15 x i8] c"This is func2!\00", comdat, align 1
@"??_C@_0BA@JFNIOLAK@string?5too?5long?$AA@" = linkonce_odr dso_local unnamed_addr constant [16 x i8] c"string too long\00", comdat, align 1
@"??_7type_info@@6B@" = external constant i8*
@"??_R0?AVbad_array_new_length@std@@@8" = linkonce_odr global %rtti.TypeDescriptor30 { i8** @"??_7type_info@@6B@", i8* null, [31 x i8] c".?AVbad_array_new_length@std@@\00" }, comdat
@__ImageBase = external dso_local constant i8
@"_CT??_R0?AVbad_array_new_length@std@@@8??0bad_array_new_length@std@@QEAA@AEBV01@@Z24" = linkonce_odr unnamed_addr constant %eh.CatchableType { i32 0, i32 trunc (i64 sub nuw nsw (i64 ptrtoint (%rtti.TypeDescriptor30* @"??_R0?AVbad_array_new_length@std@@@8" to i64), i64 ptrtoint (i8* @__ImageBase to i64)) to i32), i32 0, i32 -1, i32 0, i32 24, i32 trunc (i64 sub nuw nsw (i64 ptrtoint (%"class.std::bad_array_new_length"* (%"class.std::bad_array_new_length"*, %"class.std::bad_array_new_length"*)* @"??0bad_array_new_length@std@@QEAA@AEBV01@@Z" to i64), i64 ptrtoint (i8* @__ImageBase to i64)) to i32) }, section ".xdata", comdat
@"??_R0?AVbad_alloc@std@@@8" = linkonce_odr global %rtti.TypeDescriptor19 { i8** @"??_7type_info@@6B@", i8* null, [20 x i8] c".?AVbad_alloc@std@@\00" }, comdat
@"_CT??_R0?AVbad_alloc@std@@@8??0bad_alloc@std@@QEAA@AEBV01@@Z24" = linkonce_odr unnamed_addr constant %eh.CatchableType { i32 16, i32 trunc (i64 sub nuw nsw (i64 ptrtoint (%rtti.TypeDescriptor19* @"??_R0?AVbad_alloc@std@@@8" to i64), i64 ptrtoint (i8* @__ImageBase to i64)) to i32), i32 0, i32 -1, i32 0, i32 24, i32 trunc (i64 sub nuw nsw (i64 ptrtoint (%"class.std::bad_alloc"* (%"class.std::bad_alloc"*, %"class.std::bad_alloc"*)* @"??0bad_alloc@std@@QEAA@AEBV01@@Z" to i64), i64 ptrtoint (i8* @__ImageBase to i64)) to i32) }, section ".xdata", comdat
@"??_R0?AVexception@std@@@8" = linkonce_odr global %rtti.TypeDescriptor19 { i8** @"??_7type_info@@6B@", i8* null, [20 x i8] c".?AVexception@std@@\00" }, comdat
@"_CT??_R0?AVexception@std@@@8??0exception@std@@QEAA@AEBV01@@Z24" = linkonce_odr unnamed_addr constant %eh.CatchableType { i32 0, i32 trunc (i64 sub nuw nsw (i64 ptrtoint (%rtti.TypeDescriptor19* @"??_R0?AVexception@std@@@8" to i64), i64 ptrtoint (i8* @__ImageBase to i64)) to i32), i32 0, i32 -1, i32 0, i32 24, i32 trunc (i64 sub nuw nsw (i64 ptrtoint (%"class.std::exception"* (%"class.std::exception"*, %"class.std::exception"*)* @"??0exception@std@@QEAA@AEBV01@@Z" to i64), i64 ptrtoint (i8* @__ImageBase to i64)) to i32) }, section ".xdata", comdat
@"_CTA3?AVbad_array_new_length@std@@" = linkonce_odr unnamed_addr constant %eh.CatchableTypeArray.3 { i32 3, [3 x i32] [i32 trunc (i64 sub nuw nsw (i64 ptrtoint (%eh.CatchableType* @"_CT??_R0?AVbad_array_new_length@std@@@8??0bad_array_new_length@std@@QEAA@AEBV01@@Z24" to i64), i64 ptrtoint (i8* @__ImageBase to i64)) to i32), i32 trunc (i64 sub nuw nsw (i64 ptrtoint (%eh.CatchableType* @"_CT??_R0?AVbad_alloc@std@@@8??0bad_alloc@std@@QEAA@AEBV01@@Z24" to i64), i64 ptrtoint (i8* @__ImageBase to i64)) to i32), i32 trunc (i64 sub nuw nsw (i64 ptrtoint (%eh.CatchableType* @"_CT??_R0?AVexception@std@@@8??0exception@std@@QEAA@AEBV01@@Z24" to i64), i64 ptrtoint (i8* @__ImageBase to i64)) to i32)] }, section ".xdata", comdat
@"_TI3?AVbad_array_new_length@std@@" = linkonce_odr unnamed_addr constant %eh.ThrowInfo { i32 0, i32 trunc (i64 sub nuw nsw (i64 ptrtoint (void (%"class.std::exception"*)* @"??1exception@std@@UEAA@XZ" to i64), i64 ptrtoint (i8* @__ImageBase to i64)) to i32), i32 0, i32 trunc (i64 sub nuw nsw (i64 ptrtoint (%eh.CatchableTypeArray.3* @"_CTA3?AVbad_array_new_length@std@@" to i64), i64 ptrtoint (i8* @__ImageBase to i64)) to i32) }, section ".xdata", comdat
@"??_C@_0BF@KINCDENJ@bad?5array?5new?5length?$AA@" = linkonce_odr dso_local unnamed_addr constant [21 x i8] c"bad array new length\00", comdat, align 1
@0 = private unnamed_addr constant { [3 x i8*] } { [3 x i8*] [i8* bitcast (%rtti.CompleteObjectLocator* @"??_R4bad_array_new_length@std@@6B@" to i8*), i8* bitcast (i8* (%"class.std::bad_array_new_length"*, i32)* @"??_Gbad_array_new_length@std@@UEAAPEAXI@Z" to i8*), i8* bitcast (i8* (%"class.std::exception"*)* @"?what@exception@std@@UEBAPEBDXZ" to i8*)] }, comdat($"??_7bad_array_new_length@std@@6B@")
@"??_R4bad_array_new_length@std@@6B@" = linkonce_odr constant %rtti.CompleteObjectLocator { i32 1, i32 0, i32 0, i32 trunc (i64 sub nuw nsw (i64 ptrtoint (%rtti.TypeDescriptor30* @"??_R0?AVbad_array_new_length@std@@@8" to i64), i64 ptrtoint (i8* @__ImageBase to i64)) to i32), i32 trunc (i64 sub nuw nsw (i64 ptrtoint (%rtti.ClassHierarchyDescriptor* @"??_R3bad_array_new_length@std@@8" to i64), i64 ptrtoint (i8* @__ImageBase to i64)) to i32), i32 trunc (i64 sub nuw nsw (i64 ptrtoint (%rtti.CompleteObjectLocator* @"??_R4bad_array_new_length@std@@6B@" to i64), i64 ptrtoint (i8* @__ImageBase to i64)) to i32) }, comdat
@"??_R3bad_array_new_length@std@@8" = linkonce_odr constant %rtti.ClassHierarchyDescriptor { i32 0, i32 0, i32 3, i32 trunc (i64 sub nuw nsw (i64 ptrtoint ([4 x i32]* @"??_R2bad_array_new_length@std@@8" to i64), i64 ptrtoint (i8* @__ImageBase to i64)) to i32) }, comdat
@"??_R2bad_array_new_length@std@@8" = linkonce_odr constant [4 x i32] [i32 trunc (i64 sub nuw nsw (i64 ptrtoint (%rtti.BaseClassDescriptor* @"??_R1A@?0A@EA@bad_array_new_length@std@@8" to i64), i64 ptrtoint (i8* @__ImageBase to i64)) to i32), i32 trunc (i64 sub nuw nsw (i64 ptrtoint (%rtti.BaseClassDescriptor* @"??_R1A@?0A@EA@bad_alloc@std@@8" to i64), i64 ptrtoint (i8* @__ImageBase to i64)) to i32), i32 trunc (i64 sub nuw nsw (i64 ptrtoint (%rtti.BaseClassDescriptor* @"??_R1A@?0A@EA@exception@std@@8" to i64), i64 ptrtoint (i8* @__ImageBase to i64)) to i32), i32 0], comdat
@"??_R1A@?0A@EA@bad_array_new_length@std@@8" = linkonce_odr constant %rtti.BaseClassDescriptor { i32 trunc (i64 sub nuw nsw (i64 ptrtoint (%rtti.TypeDescriptor30* @"??_R0?AVbad_array_new_length@std@@@8" to i64), i64 ptrtoint (i8* @__ImageBase to i64)) to i32), i32 2, i32 0, i32 -1, i32 0, i32 64, i32 trunc (i64 sub nuw nsw (i64 ptrtoint (%rtti.ClassHierarchyDescriptor* @"??_R3bad_array_new_length@std@@8" to i64), i64 ptrtoint (i8* @__ImageBase to i64)) to i32) }, comdat
@"??_R1A@?0A@EA@bad_alloc@std@@8" = linkonce_odr constant %rtti.BaseClassDescriptor { i32 trunc (i64 sub nuw nsw (i64 ptrtoint (%rtti.TypeDescriptor19* @"??_R0?AVbad_alloc@std@@@8" to i64), i64 ptrtoint (i8* @__ImageBase to i64)) to i32), i32 1, i32 0, i32 -1, i32 0, i32 64, i32 trunc (i64 sub nuw nsw (i64 ptrtoint (%rtti.ClassHierarchyDescriptor* @"??_R3bad_alloc@std@@8" to i64), i64 ptrtoint (i8* @__ImageBase to i64)) to i32) }, comdat
@"??_R3bad_alloc@std@@8" = linkonce_odr constant %rtti.ClassHierarchyDescriptor { i32 0, i32 0, i32 2, i32 trunc (i64 sub nuw nsw (i64 ptrtoint ([3 x i32]* @"??_R2bad_alloc@std@@8" to i64), i64 ptrtoint (i8* @__ImageBase to i64)) to i32) }, comdat
@"??_R2bad_alloc@std@@8" = linkonce_odr constant [3 x i32] [i32 trunc (i64 sub nuw nsw (i64 ptrtoint (%rtti.BaseClassDescriptor* @"??_R1A@?0A@EA@bad_alloc@std@@8" to i64), i64 ptrtoint (i8* @__ImageBase to i64)) to i32), i32 trunc (i64 sub nuw nsw (i64 ptrtoint (%rtti.BaseClassDescriptor* @"??_R1A@?0A@EA@exception@std@@8" to i64), i64 ptrtoint (i8* @__ImageBase to i64)) to i32), i32 0], comdat
@"??_R1A@?0A@EA@exception@std@@8" = linkonce_odr constant %rtti.BaseClassDescriptor { i32 trunc (i64 sub nuw nsw (i64 ptrtoint (%rtti.TypeDescriptor19* @"??_R0?AVexception@std@@@8" to i64), i64 ptrtoint (i8* @__ImageBase to i64)) to i32), i32 0, i32 0, i32 -1, i32 0, i32 64, i32 trunc (i64 sub nuw nsw (i64 ptrtoint (%rtti.ClassHierarchyDescriptor* @"??_R3exception@std@@8" to i64), i64 ptrtoint (i8* @__ImageBase to i64)) to i32) }, comdat
@"??_R3exception@std@@8" = linkonce_odr constant %rtti.ClassHierarchyDescriptor { i32 0, i32 0, i32 1, i32 trunc (i64 sub nuw nsw (i64 ptrtoint ([2 x i32]* @"??_R2exception@std@@8" to i64), i64 ptrtoint (i8* @__ImageBase to i64)) to i32) }, comdat
@"??_R2exception@std@@8" = linkonce_odr constant [2 x i32] [i32 trunc (i64 sub nuw nsw (i64 ptrtoint (%rtti.BaseClassDescriptor* @"??_R1A@?0A@EA@exception@std@@8" to i64), i64 ptrtoint (i8* @__ImageBase to i64)) to i32), i32 0], comdat
@1 = private unnamed_addr constant { [3 x i8*] } { [3 x i8*] [i8* bitcast (%rtti.CompleteObjectLocator* @"??_R4bad_alloc@std@@6B@" to i8*), i8* bitcast (i8* (%"class.std::bad_alloc"*, i32)* @"??_Gbad_alloc@std@@UEAAPEAXI@Z" to i8*), i8* bitcast (i8* (%"class.std::exception"*)* @"?what@exception@std@@UEBAPEBDXZ" to i8*)] }, comdat($"??_7bad_alloc@std@@6B@")
@"??_R4bad_alloc@std@@6B@" = linkonce_odr constant %rtti.CompleteObjectLocator { i32 1, i32 0, i32 0, i32 trunc (i64 sub nuw nsw (i64 ptrtoint (%rtti.TypeDescriptor19* @"??_R0?AVbad_alloc@std@@@8" to i64), i64 ptrtoint (i8* @__ImageBase to i64)) to i32), i32 trunc (i64 sub nuw nsw (i64 ptrtoint (%rtti.ClassHierarchyDescriptor* @"??_R3bad_alloc@std@@8" to i64), i64 ptrtoint (i8* @__ImageBase to i64)) to i32), i32 trunc (i64 sub nuw nsw (i64 ptrtoint (%rtti.CompleteObjectLocator* @"??_R4bad_alloc@std@@6B@" to i64), i64 ptrtoint (i8* @__ImageBase to i64)) to i32) }, comdat
@2 = private unnamed_addr constant { [3 x i8*] } { [3 x i8*] [i8* bitcast (%rtti.CompleteObjectLocator* @"??_R4exception@std@@6B@" to i8*), i8* bitcast (i8* (%"class.std::exception"*, i32)* @"??_Gexception@std@@UEAAPEAXI@Z" to i8*), i8* bitcast (i8* (%"class.std::exception"*)* @"?what@exception@std@@UEBAPEBDXZ" to i8*)] }, comdat($"??_7exception@std@@6B@")
@"??_R4exception@std@@6B@" = linkonce_odr constant %rtti.CompleteObjectLocator { i32 1, i32 0, i32 0, i32 trunc (i64 sub nuw nsw (i64 ptrtoint (%rtti.TypeDescriptor19* @"??_R0?AVexception@std@@@8" to i64), i64 ptrtoint (i8* @__ImageBase to i64)) to i32), i32 trunc (i64 sub nuw nsw (i64 ptrtoint (%rtti.ClassHierarchyDescriptor* @"??_R3exception@std@@8" to i64), i64 ptrtoint (i8* @__ImageBase to i64)) to i32), i32 trunc (i64 sub nuw nsw (i64 ptrtoint (%rtti.CompleteObjectLocator* @"??_R4exception@std@@6B@" to i64), i64 ptrtoint (i8* @__ImageBase to i64)) to i32) }, comdat
@"??_C@_0BC@EOODALEL@Unknown?5exception?$AA@" = linkonce_odr dso_local unnamed_addr constant [18 x i8] c"Unknown exception\00", comdat, align 1

@"??_7bad_array_new_length@std@@6B@" = unnamed_addr alias i8*, getelementptr inbounds ({ [3 x i8*] }, { [3 x i8*] }* @0, i32 0, i32 0, i32 1)
@"??_7bad_alloc@std@@6B@" = unnamed_addr alias i8*, getelementptr inbounds ({ [3 x i8*] }, { [3 x i8*] }* @1, i32 0, i32 0, i32 1)
@"??_7exception@std@@6B@" = unnamed_addr alias i8*, getelementptr inbounds ({ [3 x i8*] }, { [3 x i8*] }* @2, i32 0, i32 0, i32 1)

; Function Attrs: uwtable mustprogress
define dso_local void @"?func2_hello@@YA?AV?$basic_string@DU?$char_traits@D@std@@V?$allocator@D@2@@std@@XZ"(%"class.std::basic_string"* noalias sret(%"class.std::basic_string") align 8 %0) #0 !dbg !1626 {
  %2 = alloca i8*, align 8
  %3 = bitcast %"class.std::basic_string"* %0 to i8*
  store i8* %3, i8** %2, align 8
  %4 = call %"class.std::basic_string"* @"??0?$basic_string@DU?$char_traits@D@std@@V?$allocator@D@2@@std@@QEAA@QEBD@Z"(%"class.std::basic_string"* nonnull dereferenceable(32) %0, i8* getelementptr inbounds ([15 x i8], [15 x i8]* @"??_C@_0P@MFKBACLO@This?5is?5func2?$CB?$AA@", i64 0, i64 0)), !dbg !1630
  ret void, !dbg !1631
}

; Function Attrs: uwtable
define linkonce_odr dso_local %"class.std::basic_string"* @"??0?$basic_string@DU?$char_traits@D@std@@V?$allocator@D@2@@std@@QEAA@QEBD@Z"(%"class.std::basic_string"* nonnull returned dereferenceable(32) %0, i8* %1) unnamed_addr #1 comdat align 2 personality i8* bitcast (i32 (...)* @__CxxFrameHandler3 to i8*) !dbg !1632 {
  %3 = alloca i8*, align 8
  %4 = alloca %"class.std::basic_string"*, align 8
  %5 = alloca %"struct.std::_Zero_then_variadic_args_t", align 1
  %6 = alloca %"struct.std::_Fake_allocator"*, align 8
  %7 = alloca %"struct.std::_Fake_allocator", align 1
  %8 = alloca %"struct.std::_Fake_proxy_ptr_impl", align 1
  store i8* %1, i8** %3, align 8, !tbaa !1675
  call void @llvm.dbg.declare(metadata i8** %3, metadata !1634, metadata !DIExpression()), !dbg !1679
  store %"class.std::basic_string"* %0, %"class.std::basic_string"** %4, align 8, !tbaa !1675
  call void @llvm.dbg.declare(metadata %"class.std::basic_string"** %4, metadata !1635, metadata !DIExpression()), !dbg !1680
  %9 = load %"class.std::basic_string"*, %"class.std::basic_string"** %4, align 8
  %10 = getelementptr inbounds %"class.std::basic_string", %"class.std::basic_string"* %9, i32 0, i32 0, !dbg !1681
  %11 = getelementptr inbounds %"struct.std::_Zero_then_variadic_args_t", %"struct.std::_Zero_then_variadic_args_t"* %5, i32 0, i32 0, !dbg !1681
  %12 = load i8, i8* %11, align 1, !dbg !1681
  %13 = call %"class.std::_Compressed_pair"* @"??$?0$$V@?$_Compressed_pair@V?$allocator@D@std@@V?$_String_val@U?$_Simple_types@D@std@@@2@$00@std@@QEAA@U_Zero_then_variadic_args_t@1@@Z"(%"class.std::_Compressed_pair"* nonnull dereferenceable(32) %10, i8 %12) #16, !dbg !1681
  %14 = bitcast %"struct.std::_Fake_allocator"** %6 to i8*, !dbg !1682
  call void @llvm.lifetime.start.p0i8(i64 8, i8* %14) #16, !dbg !1682
  call void @llvm.dbg.declare(metadata %"struct.std::_Fake_allocator"** %6, metadata !1637, metadata !DIExpression()), !dbg !1683
  %15 = bitcast %"struct.std::_Fake_allocator"* %7 to i8*, !dbg !1684
  call void @llvm.lifetime.start.p0i8(i64 1, i8* %15) #16, !dbg !1684
  store %"struct.std::_Fake_allocator"* %7, %"struct.std::_Fake_allocator"** %6, align 8, !dbg !1683, !tbaa !1675
  %16 = bitcast %"struct.std::_Fake_proxy_ptr_impl"* %8 to i8*, !dbg !1685
  call void @llvm.lifetime.start.p0i8(i64 1, i8* %16) #16, !dbg !1685
  call void @llvm.dbg.declare(metadata %"struct.std::_Fake_proxy_ptr_impl"* %8, metadata !1640, metadata !DIExpression()), !dbg !1686
  %17 = getelementptr inbounds %"class.std::basic_string", %"class.std::basic_string"* %9, i32 0, i32 0, !dbg !1687
  %18 = getelementptr inbounds %"class.std::_Compressed_pair", %"class.std::_Compressed_pair"* %17, i32 0, i32 0, !dbg !1688
  %19 = bitcast %"class.std::_String_val"* %18 to %"struct.std::_Container_base0"*, !dbg !1687
  %20 = load %"struct.std::_Fake_allocator"*, %"struct.std::_Fake_allocator"** %6, align 8, !dbg !1689, !tbaa !1675
  %21 = call %"struct.std::_Fake_proxy_ptr_impl"* @"??0_Fake_proxy_ptr_impl@std@@QEAA@AEBU_Fake_allocator@1@AEBU_Container_base0@1@@Z"(%"struct.std::_Fake_proxy_ptr_impl"* nonnull dereferenceable(1) %8, %"struct.std::_Fake_allocator"* nonnull align 1 dereferenceable(1) %20, %"struct.std::_Container_base0"* nonnull align 1 dereferenceable(1) %19) #16, !dbg !1686
  call void @"?_Tidy_init@?$basic_string@DU?$char_traits@D@std@@V?$allocator@D@2@@std@@AEAAXXZ"(%"class.std::basic_string"* nonnull dereferenceable(32) %9) #16, !dbg !1690
  %22 = load i8*, i8** %3, align 8, !dbg !1691, !tbaa !1675
  %23 = invoke nonnull align 8 dereferenceable(32) %"class.std::basic_string"* @"?assign@?$basic_string@DU?$char_traits@D@std@@V?$allocator@D@2@@std@@QEAAAEAV12@QEBD@Z"(%"class.std::basic_string"* nonnull dereferenceable(32) %9, i8* %22)
          to label %24 unwind label %28, !dbg !1692

24:                                               ; preds = %2
  call void @"?_Release@_Fake_proxy_ptr_impl@std@@QEAAXXZ"(%"struct.std::_Fake_proxy_ptr_impl"* nonnull dereferenceable(1) %8) #16, !dbg !1693
  %25 = bitcast %"struct.std::_Fake_proxy_ptr_impl"* %8 to i8*, !dbg !1694
  call void @llvm.lifetime.end.p0i8(i64 1, i8* %25) #16, !dbg !1694
  %26 = bitcast %"struct.std::_Fake_allocator"* %7 to i8*, !dbg !1694
  call void @llvm.lifetime.end.p0i8(i64 1, i8* %26) #16, !dbg !1694
  %27 = bitcast %"struct.std::_Fake_allocator"** %6 to i8*, !dbg !1694
  call void @llvm.lifetime.end.p0i8(i64 8, i8* %27) #16, !dbg !1694
  ret %"class.std::basic_string"* %9, !dbg !1694

28:                                               ; preds = %2
  %29 = cleanuppad within none [], !dbg !1694
  %30 = bitcast %"struct.std::_Fake_proxy_ptr_impl"* %8 to i8*, !dbg !1694
  call void @llvm.lifetime.end.p0i8(i64 1, i8* %30) #16, !dbg !1694
  cleanupret from %29 unwind label %31, !dbg !1694

31:                                               ; preds = %28
  %32 = cleanuppad within none [], !dbg !1694
  %33 = bitcast %"struct.std::_Fake_allocator"* %7 to i8*, !dbg !1694
  call void @llvm.lifetime.end.p0i8(i64 1, i8* %33) #16, !dbg !1694
  cleanupret from %32 unwind label %34, !dbg !1694

34:                                               ; preds = %31
  %35 = cleanuppad within none [], !dbg !1694
  %36 = bitcast %"struct.std::_Fake_allocator"** %6 to i8*, !dbg !1694
  call void @llvm.lifetime.end.p0i8(i64 8, i8* %36) #16, !dbg !1694
  cleanupret from %35 unwind label %37, !dbg !1694

37:                                               ; preds = %34
  %38 = cleanuppad within none [], !dbg !1695
  call void @"??1?$_Compressed_pair@V?$allocator@D@std@@V?$_String_val@U?$_Simple_types@D@std@@@2@$00@std@@QEAA@XZ"(%"class.std::_Compressed_pair"* nonnull dereferenceable(32) %10) #16 [ "funclet"(token %38) ], !dbg !1695
  cleanupret from %38 unwind to caller, !dbg !1695
}

; Function Attrs: nounwind uwtable mustprogress
define dso_local i32 @"?negate@@YAHH@Z"(i32 %0) #2 !dbg !1696 {
  %2 = alloca i32, align 4
  store i32 %0, i32* %2, align 4, !tbaa !1699
  call void @llvm.dbg.declare(metadata i32* %2, metadata !1698, metadata !DIExpression()), !dbg !1701
  %3 = load i32, i32* %2, align 4, !dbg !1702, !tbaa !1699
  %4 = sub nsw i32 0, %3, !dbg !1703
  ret i32 %4, !dbg !1704
}

; Function Attrs: nofree nosync nounwind readnone speculatable willreturn
declare void @llvm.dbg.declare(metadata, metadata, metadata) #3

; Function Attrs: nounwind uwtable
define linkonce_odr dso_local %"class.std::_Compressed_pair"* @"??$?0$$V@?$_Compressed_pair@V?$allocator@D@std@@V?$_String_val@U?$_Simple_types@D@std@@@2@$00@std@@QEAA@U_Zero_then_variadic_args_t@1@@Z"(%"class.std::_Compressed_pair"* nonnull returned dereferenceable(32) %0, i8 %1) unnamed_addr #4 comdat align 2 !dbg !1705 {
  %3 = alloca %"struct.std::_Zero_then_variadic_args_t", align 1
  %4 = alloca %"class.std::_Compressed_pair"*, align 8
  %5 = getelementptr inbounds %"struct.std::_Zero_then_variadic_args_t", %"struct.std::_Zero_then_variadic_args_t"* %3, i32 0, i32 0
  store i8 %1, i8* %5, align 1
  call void @llvm.dbg.declare(metadata %"struct.std::_Zero_then_variadic_args_t"* %3, metadata !1718, metadata !DIExpression()), !dbg !1721
  store %"class.std::_Compressed_pair"* %0, %"class.std::_Compressed_pair"** %4, align 8, !tbaa !1675
  call void @llvm.dbg.declare(metadata %"class.std::_Compressed_pair"** %4, metadata !1719, metadata !DIExpression()), !dbg !1722
  %6 = load %"class.std::_Compressed_pair"*, %"class.std::_Compressed_pair"** %4, align 8
  %7 = bitcast %"class.std::_Compressed_pair"* %6 to %"class.std::allocator"*, !dbg !1723
  %8 = call %"class.std::allocator"* @"??0?$allocator@D@std@@QEAA@XZ"(%"class.std::allocator"* nonnull dereferenceable(1) %7) #16, !dbg !1724
  %9 = getelementptr inbounds %"class.std::_Compressed_pair", %"class.std::_Compressed_pair"* %6, i32 0, i32 0, !dbg !1725
  %10 = call %"class.std::_String_val"* @"??0?$_String_val@U?$_Simple_types@D@std@@@std@@QEAA@XZ"(%"class.std::_String_val"* nonnull dereferenceable(32) %9) #16, !dbg !1725
  ret %"class.std::_Compressed_pair"* %6, !dbg !1726
}

; Function Attrs: argmemonly nofree nosync nounwind willreturn
declare void @llvm.lifetime.start.p0i8(i64 immarg, i8* nocapture) #5

; Function Attrs: nounwind uwtable
define linkonce_odr dso_local %"struct.std::_Fake_proxy_ptr_impl"* @"??0_Fake_proxy_ptr_impl@std@@QEAA@AEBU_Fake_allocator@1@AEBU_Container_base0@1@@Z"(%"struct.std::_Fake_proxy_ptr_impl"* nonnull returned dereferenceable(1) %0, %"struct.std::_Fake_allocator"* nonnull align 1 dereferenceable(1) %1, %"struct.std::_Container_base0"* nonnull align 1 dereferenceable(1) %2) unnamed_addr #4 comdat align 2 !dbg !1727 {
  %4 = alloca %"struct.std::_Container_base0"*, align 8
  %5 = alloca %"struct.std::_Fake_allocator"*, align 8
  %6 = alloca %"struct.std::_Fake_proxy_ptr_impl"*, align 8
  store %"struct.std::_Container_base0"* %2, %"struct.std::_Container_base0"** %4, align 8, !tbaa !1675
  call void @llvm.dbg.declare(metadata %"struct.std::_Container_base0"** %4, metadata !1729, metadata !DIExpression()), !dbg !1733
  store %"struct.std::_Fake_allocator"* %1, %"struct.std::_Fake_allocator"** %5, align 8, !tbaa !1675
  call void @llvm.dbg.declare(metadata %"struct.std::_Fake_allocator"** %5, metadata !1730, metadata !DIExpression()), !dbg !1734
  store %"struct.std::_Fake_proxy_ptr_impl"* %0, %"struct.std::_Fake_proxy_ptr_impl"** %6, align 8, !tbaa !1675
  call void @llvm.dbg.declare(metadata %"struct.std::_Fake_proxy_ptr_impl"** %6, metadata !1731, metadata !DIExpression()), !dbg !1735
  %7 = load %"struct.std::_Fake_proxy_ptr_impl"*, %"struct.std::_Fake_proxy_ptr_impl"** %6, align 8
  ret %"struct.std::_Fake_proxy_ptr_impl"* %7, !dbg !1736
}

; Function Attrs: nounwind uwtable mustprogress
define linkonce_odr dso_local void @"?_Tidy_init@?$basic_string@DU?$char_traits@D@std@@V?$allocator@D@2@@std@@AEAAXXZ"(%"class.std::basic_string"* nonnull dereferenceable(32) %0) #2 comdat align 2 !dbg !1737 {
  %2 = alloca %"class.std::basic_string"*, align 8
  %3 = alloca i8, align 1
  store %"class.std::basic_string"* %0, %"class.std::basic_string"** %2, align 8, !tbaa !1675
  call void @llvm.dbg.declare(metadata %"class.std::basic_string"** %2, metadata !1739, metadata !DIExpression()), !dbg !1740
  %4 = load %"class.std::basic_string"*, %"class.std::basic_string"** %2, align 8
  %5 = getelementptr inbounds %"class.std::basic_string", %"class.std::basic_string"* %4, i32 0, i32 0, !dbg !1741
  %6 = getelementptr inbounds %"class.std::_Compressed_pair", %"class.std::_Compressed_pair"* %5, i32 0, i32 0, !dbg !1742
  %7 = getelementptr inbounds %"class.std::_String_val", %"class.std::_String_val"* %6, i32 0, i32 1, !dbg !1743
  store i64 0, i64* %7, align 8, !dbg !1744, !tbaa !1745
  %8 = getelementptr inbounds %"class.std::basic_string", %"class.std::basic_string"* %4, i32 0, i32 0, !dbg !1750
  %9 = getelementptr inbounds %"class.std::_Compressed_pair", %"class.std::_Compressed_pair"* %8, i32 0, i32 0, !dbg !1751
  %10 = getelementptr inbounds %"class.std::_String_val", %"class.std::_String_val"* %9, i32 0, i32 2, !dbg !1752
  store i64 15, i64* %10, align 8, !dbg !1753, !tbaa !1754
  call void @llvm.lifetime.start.p0i8(i64 1, i8* %3) #16, !dbg !1755
  store i8 0, i8* %3, align 1, !dbg !1755, !tbaa !1756
  %11 = getelementptr inbounds %"class.std::basic_string", %"class.std::basic_string"* %4, i32 0, i32 0, !dbg !1757
  %12 = getelementptr inbounds %"class.std::_Compressed_pair", %"class.std::_Compressed_pair"* %11, i32 0, i32 0, !dbg !1758
  %13 = getelementptr inbounds %"class.std::_String_val", %"class.std::_String_val"* %12, i32 0, i32 0, !dbg !1759
  %14 = bitcast %"union.std::_String_val<std::_Simple_types<char>>::_Bxty"* %13 to [16 x i8]*, !dbg !1760
  %15 = getelementptr inbounds [16 x i8], [16 x i8]* %14, i64 0, i64 0, !dbg !1757
  call void @"?assign@?$_Narrow_char_traits@DH@std@@SAXAEADAEBD@Z"(i8* nonnull align 1 dereferenceable(1) %15, i8* nonnull align 1 dereferenceable(1) %3) #16, !dbg !1761
  call void @llvm.lifetime.end.p0i8(i64 1, i8* %3) #16, !dbg !1761
  ret void, !dbg !1762
}

; Function Attrs: uwtable mustprogress
define linkonce_odr dso_local nonnull align 8 dereferenceable(32) %"class.std::basic_string"* @"?assign@?$basic_string@DU?$char_traits@D@std@@V?$allocator@D@2@@std@@QEAAAEAV12@QEBD@Z"(%"class.std::basic_string"* nonnull dereferenceable(32) %0, i8* %1) #0 comdat align 2 !dbg !1763 {
  %3 = alloca i8*, align 8
  %4 = alloca %"class.std::basic_string"*, align 8
  store i8* %1, i8** %3, align 8, !tbaa !1675
  call void @llvm.dbg.declare(metadata i8** %3, metadata !1765, metadata !DIExpression()), !dbg !1767
  store %"class.std::basic_string"* %0, %"class.std::basic_string"** %4, align 8, !tbaa !1675
  call void @llvm.dbg.declare(metadata %"class.std::basic_string"** %4, metadata !1766, metadata !DIExpression()), !dbg !1768
  %5 = load %"class.std::basic_string"*, %"class.std::basic_string"** %4, align 8
  %6 = load i8*, i8** %3, align 8, !dbg !1769, !tbaa !1675
  %7 = call i64 @"?length@?$_Narrow_char_traits@DH@std@@SA_KQEBD@Z"(i8* %6) #16, !dbg !1770
  %8 = call i64 @"??$_Convert_size@_K@std@@YA_K_K@Z"(i64 %7) #16, !dbg !1771
  %9 = load i8*, i8** %3, align 8, !dbg !1772, !tbaa !1675
  %10 = call nonnull align 8 dereferenceable(32) %"class.std::basic_string"* @"?assign@?$basic_string@DU?$char_traits@D@std@@V?$allocator@D@2@@std@@QEAAAEAV12@QEBD_K@Z"(%"class.std::basic_string"* nonnull dereferenceable(32) %5, i8* %9, i64 %8), !dbg !1773
  ret %"class.std::basic_string"* %10, !dbg !1774
}

declare dso_local i32 @__CxxFrameHandler3(...)

; Function Attrs: nounwind uwtable mustprogress
define linkonce_odr dso_local void @"?_Release@_Fake_proxy_ptr_impl@std@@QEAAXXZ"(%"struct.std::_Fake_proxy_ptr_impl"* nonnull dereferenceable(1) %0) #2 comdat align 2 !dbg !1775 {
  %2 = alloca %"struct.std::_Fake_proxy_ptr_impl"*, align 8
  store %"struct.std::_Fake_proxy_ptr_impl"* %0, %"struct.std::_Fake_proxy_ptr_impl"** %2, align 8, !tbaa !1675
  call void @llvm.dbg.declare(metadata %"struct.std::_Fake_proxy_ptr_impl"** %2, metadata !1777, metadata !DIExpression()), !dbg !1778
  %3 = load %"struct.std::_Fake_proxy_ptr_impl"*, %"struct.std::_Fake_proxy_ptr_impl"** %2, align 8
  ret void, !dbg !1779
}

; Function Attrs: argmemonly nofree nosync nounwind willreturn
declare void @llvm.lifetime.end.p0i8(i64 immarg, i8* nocapture) #5

; Function Attrs: inlinehint nounwind uwtable
define linkonce_odr dso_local void @"??1?$_Compressed_pair@V?$allocator@D@std@@V?$_String_val@U?$_Simple_types@D@std@@@2@$00@std@@QEAA@XZ"(%"class.std::_Compressed_pair"* nonnull dereferenceable(32) %0) unnamed_addr #6 comdat align 2 !dbg !1780 {
  %2 = alloca %"class.std::_Compressed_pair"*, align 8
  store %"class.std::_Compressed_pair"* %0, %"class.std::_Compressed_pair"** %2, align 8, !tbaa !1675
  call void @llvm.dbg.declare(metadata %"class.std::_Compressed_pair"** %2, metadata !1785, metadata !DIExpression()), !dbg !1786
  %3 = load %"class.std::_Compressed_pair"*, %"class.std::_Compressed_pair"** %2, align 8
  %4 = getelementptr inbounds %"class.std::_Compressed_pair", %"class.std::_Compressed_pair"* %3, i32 0, i32 0, !dbg !1787
  call void @"??1?$_String_val@U?$_Simple_types@D@std@@@std@@QEAA@XZ"(%"class.std::_String_val"* nonnull dereferenceable(32) %4) #16, !dbg !1787
  ret void, !dbg !1789
}

; Function Attrs: nounwind uwtable
define linkonce_odr dso_local %"class.std::allocator"* @"??0?$allocator@D@std@@QEAA@XZ"(%"class.std::allocator"* nonnull returned dereferenceable(1) %0) unnamed_addr #4 comdat align 2 !dbg !1790 {
  %2 = alloca %"class.std::allocator"*, align 8
  store %"class.std::allocator"* %0, %"class.std::allocator"** %2, align 8, !tbaa !1675
  call void @llvm.dbg.declare(metadata %"class.std::allocator"** %2, metadata !1792, metadata !DIExpression()), !dbg !1794
  %3 = load %"class.std::allocator"*, %"class.std::allocator"** %2, align 8
  ret %"class.std::allocator"* %3, !dbg !1795
}

; Function Attrs: nounwind uwtable
define linkonce_odr dso_local %"class.std::_String_val"* @"??0?$_String_val@U?$_Simple_types@D@std@@@std@@QEAA@XZ"(%"class.std::_String_val"* nonnull returned dereferenceable(32) %0) unnamed_addr #4 comdat align 2 !dbg !1796 {
  %2 = alloca %"class.std::_String_val"*, align 8
  store %"class.std::_String_val"* %0, %"class.std::_String_val"** %2, align 8, !tbaa !1675
  call void @llvm.dbg.declare(metadata %"class.std::_String_val"** %2, metadata !1798, metadata !DIExpression()), !dbg !1800
  %3 = load %"class.std::_String_val"*, %"class.std::_String_val"** %2, align 8
  %4 = bitcast %"class.std::_String_val"* %3 to %"struct.std::_Container_base0"*, !dbg !1801
  %5 = getelementptr inbounds %"class.std::_String_val", %"class.std::_String_val"* %3, i32 0, i32 0, !dbg !1802
  %6 = call %"union.std::_String_val<std::_Simple_types<char>>::_Bxty"* @"??0_Bxty@?$_String_val@U?$_Simple_types@D@std@@@std@@QEAA@XZ"(%"union.std::_String_val<std::_Simple_types<char>>::_Bxty"* nonnull dereferenceable(16) %5) #16, !dbg !1802
  %7 = getelementptr inbounds %"class.std::_String_val", %"class.std::_String_val"* %3, i32 0, i32 1, !dbg !1803
  store i64 0, i64* %7, align 8, !dbg !1803, !tbaa !1804
  %8 = getelementptr inbounds %"class.std::_String_val", %"class.std::_String_val"* %3, i32 0, i32 2, !dbg !1805
  store i64 0, i64* %8, align 8, !dbg !1805, !tbaa !1806
  ret %"class.std::_String_val"* %3, !dbg !1807
}

; Function Attrs: nounwind uwtable
define linkonce_odr dso_local %"union.std::_String_val<std::_Simple_types<char>>::_Bxty"* @"??0_Bxty@?$_String_val@U?$_Simple_types@D@std@@@std@@QEAA@XZ"(%"union.std::_String_val<std::_Simple_types<char>>::_Bxty"* nonnull returned dereferenceable(16) %0) unnamed_addr #4 comdat align 2 !dbg !1808 {
  %2 = alloca %"union.std::_String_val<std::_Simple_types<char>>::_Bxty"*, align 8
  store %"union.std::_String_val<std::_Simple_types<char>>::_Bxty"* %0, %"union.std::_String_val<std::_Simple_types<char>>::_Bxty"** %2, align 8, !tbaa !1675
  call void @llvm.dbg.declare(metadata %"union.std::_String_val<std::_Simple_types<char>>::_Bxty"** %2, metadata !1810, metadata !DIExpression()), !dbg !1812
  %3 = load %"union.std::_String_val<std::_Simple_types<char>>::_Bxty"*, %"union.std::_String_val<std::_Simple_types<char>>::_Bxty"** %2, align 8
  ret %"union.std::_String_val<std::_Simple_types<char>>::_Bxty"* %3, !dbg !1813
}

; Function Attrs: inlinehint nounwind uwtable mustprogress
define linkonce_odr dso_local void @"?assign@?$_Narrow_char_traits@DH@std@@SAXAEADAEBD@Z"(i8* nonnull align 1 dereferenceable(1) %0, i8* nonnull align 1 dereferenceable(1) %1) #7 comdat align 2 !dbg !1814 {
  %3 = alloca i8*, align 8
  %4 = alloca i8*, align 8
  store i8* %1, i8** %3, align 8, !tbaa !1675
  call void @llvm.dbg.declare(metadata i8** %3, metadata !1816, metadata !DIExpression()), !dbg !1818
  store i8* %0, i8** %4, align 8, !tbaa !1675
  call void @llvm.dbg.declare(metadata i8** %4, metadata !1817, metadata !DIExpression()), !dbg !1819
  %5 = load i8*, i8** %3, align 8, !dbg !1820, !tbaa !1675
  %6 = load i8, i8* %5, align 1, !dbg !1820, !tbaa !1756
  %7 = load i8*, i8** %4, align 8, !dbg !1821, !tbaa !1675
  store i8 %6, i8* %7, align 1, !dbg !1822, !tbaa !1756
  ret void, !dbg !1823
}

; Function Attrs: uwtable mustprogress
define linkonce_odr dso_local nonnull align 8 dereferenceable(32) %"class.std::basic_string"* @"?assign@?$basic_string@DU?$char_traits@D@std@@V?$allocator@D@2@@std@@QEAAAEAV12@QEBD_K@Z"(%"class.std::basic_string"* nonnull dereferenceable(32) %0, i8* %1, i64 %2) #0 comdat align 2 !dbg !1824 {
  %4 = alloca %"class.std::basic_string"*, align 8
  %5 = alloca i64, align 8
  %6 = alloca i8*, align 8
  %7 = alloca %"class.std::basic_string"*, align 8
  %8 = alloca i8*, align 8
  %9 = alloca i8, align 1
  %10 = alloca %class.anon, align 1
  store i64 %2, i64* %5, align 8, !tbaa !1832
  call void @llvm.dbg.declare(metadata i64* %5, metadata !1826, metadata !DIExpression()), !dbg !1833
  store i8* %1, i8** %6, align 8, !tbaa !1675
  call void @llvm.dbg.declare(metadata i8** %6, metadata !1827, metadata !DIExpression()), !dbg !1834
  store %"class.std::basic_string"* %0, %"class.std::basic_string"** %7, align 8, !tbaa !1675
  call void @llvm.dbg.declare(metadata %"class.std::basic_string"** %7, metadata !1828, metadata !DIExpression()), !dbg !1835
  %11 = load %"class.std::basic_string"*, %"class.std::basic_string"** %7, align 8
  %12 = load i64, i64* %5, align 8, !dbg !1836, !tbaa !1832
  %13 = getelementptr inbounds %"class.std::basic_string", %"class.std::basic_string"* %11, i32 0, i32 0, !dbg !1837
  %14 = getelementptr inbounds %"class.std::_Compressed_pair", %"class.std::_Compressed_pair"* %13, i32 0, i32 0, !dbg !1838
  %15 = getelementptr inbounds %"class.std::_String_val", %"class.std::_String_val"* %14, i32 0, i32 2, !dbg !1839
  %16 = load i64, i64* %15, align 8, !dbg !1839, !tbaa !1754
  %17 = icmp ule i64 %12, %16, !dbg !1840
  br i1 %17, label %18, label %35, !dbg !1841

18:                                               ; preds = %3
  %19 = bitcast i8** %8 to i8*, !dbg !1842
  call void @llvm.lifetime.start.p0i8(i64 8, i8* %19) #16, !dbg !1842
  call void @llvm.dbg.declare(metadata i8** %8, metadata !1829, metadata !DIExpression()), !dbg !1843
  %20 = getelementptr inbounds %"class.std::basic_string", %"class.std::basic_string"* %11, i32 0, i32 0, !dbg !1844
  %21 = getelementptr inbounds %"class.std::_Compressed_pair", %"class.std::_Compressed_pair"* %20, i32 0, i32 0, !dbg !1845
  %22 = call i8* @"?_Myptr@?$_String_val@U?$_Simple_types@D@std@@@std@@QEAAPEADXZ"(%"class.std::_String_val"* nonnull dereferenceable(32) %21) #16, !dbg !1846
  store i8* %22, i8** %8, align 8, !dbg !1843, !tbaa !1675
  %23 = load i64, i64* %5, align 8, !dbg !1847, !tbaa !1832
  %24 = getelementptr inbounds %"class.std::basic_string", %"class.std::basic_string"* %11, i32 0, i32 0, !dbg !1848
  %25 = getelementptr inbounds %"class.std::_Compressed_pair", %"class.std::_Compressed_pair"* %24, i32 0, i32 0, !dbg !1849
  %26 = getelementptr inbounds %"class.std::_String_val", %"class.std::_String_val"* %25, i32 0, i32 1, !dbg !1850
  store i64 %23, i64* %26, align 8, !dbg !1851, !tbaa !1745
  %27 = load i64, i64* %5, align 8, !dbg !1852, !tbaa !1832
  %28 = load i8*, i8** %6, align 8, !dbg !1853, !tbaa !1675
  %29 = load i8*, i8** %8, align 8, !dbg !1854, !tbaa !1675
  %30 = call i8* @"?move@?$_Char_traits@DH@std@@SAPEADQEADQEBD_K@Z"(i8* %29, i8* %28, i64 %27) #16, !dbg !1855
  call void @llvm.lifetime.start.p0i8(i64 1, i8* %9) #16, !dbg !1856
  store i8 0, i8* %9, align 1, !dbg !1856, !tbaa !1756
  %31 = load i8*, i8** %8, align 8, !dbg !1857, !tbaa !1675
  %32 = load i64, i64* %5, align 8, !dbg !1858, !tbaa !1832
  %33 = getelementptr inbounds i8, i8* %31, i64 %32, !dbg !1857
  call void @"?assign@?$_Narrow_char_traits@DH@std@@SAXAEADAEBD@Z"(i8* nonnull align 1 dereferenceable(1) %33, i8* nonnull align 1 dereferenceable(1) %9) #16, !dbg !1859
  call void @llvm.lifetime.end.p0i8(i64 1, i8* %9) #16, !dbg !1859
  store %"class.std::basic_string"* %11, %"class.std::basic_string"** %4, align 8, !dbg !1860
  %34 = bitcast i8** %8 to i8*, !dbg !1861
  call void @llvm.lifetime.end.p0i8(i64 8, i8* %34) #16, !dbg !1861
  br label %41

35:                                               ; preds = %3
  %36 = load i8*, i8** %6, align 8, !dbg !1862, !tbaa !1675
  %37 = load i64, i64* %5, align 8, !dbg !1863, !tbaa !1832
  %38 = getelementptr inbounds %class.anon, %class.anon* %10, i32 0, i32 0, !dbg !1864
  %39 = load i8, i8* %38, align 1, !dbg !1864
  %40 = call nonnull align 8 dereferenceable(32) %"class.std::basic_string"* @"??$_Reallocate_for@V<lambda_1>@?0??assign@?$basic_string@DU?$char_traits@D@std@@V?$allocator@D@2@@std@@QEAAAEAV34@QEBD_K@Z@PEBD@?$basic_string@DU?$char_traits@D@std@@V?$allocator@D@2@@std@@AEAAAEAV01@_KV<lambda_1>@?0??assign@01@QEAAAEAV01@QEBD0@Z@PEBD@Z"(%"class.std::basic_string"* nonnull dereferenceable(32) %11, i64 %37, i8 %39, i8* %36), !dbg !1864
  store %"class.std::basic_string"* %40, %"class.std::basic_string"** %4, align 8, !dbg !1865
  br label %41, !dbg !1865

41:                                               ; preds = %35, %18
  %42 = load %"class.std::basic_string"*, %"class.std::basic_string"** %4, align 8, !dbg !1866
  ret %"class.std::basic_string"* %42, !dbg !1866
}

; Function Attrs: nounwind uwtable mustprogress
define linkonce_odr dso_local i64 @"??$_Convert_size@_K@std@@YA_K_K@Z"(i64 %0) #2 comdat !dbg !1867 {
  %2 = alloca i64, align 8
  store i64 %0, i64* %2, align 8, !tbaa !1832
  call void @llvm.dbg.declare(metadata i64* %2, metadata !1871, metadata !DIExpression()), !dbg !1874
  %3 = load i64, i64* %2, align 8, !dbg !1875, !tbaa !1832
  ret i64 %3, !dbg !1876
}

; Function Attrs: inlinehint nounwind uwtable mustprogress
define linkonce_odr dso_local i64 @"?length@?$_Narrow_char_traits@DH@std@@SA_KQEBD@Z"(i8* %0) #7 comdat align 2 personality i8* bitcast (i32 (...)* @__CxxFrameHandler3 to i8*) !dbg !1877 {
  %2 = alloca i8*, align 8
  store i8* %0, i8** %2, align 8, !tbaa !1675
  call void @llvm.dbg.declare(metadata i8** %2, metadata !1879, metadata !DIExpression()), !dbg !1880
  %3 = load i8*, i8** %2, align 8, !dbg !1881, !tbaa !1675
  %4 = invoke i64 @strlen(i8* %3)
          to label %5 unwind label %6, !dbg !1882

5:                                                ; preds = %1
  ret i64 %4, !dbg !1883

6:                                                ; preds = %1
  %7 = cleanuppad within none [], !dbg !1882
  call void @__std_terminate() #17 [ "funclet"(token %7) ], !dbg !1882
  unreachable, !dbg !1882
}

; Function Attrs: nounwind uwtable mustprogress
define linkonce_odr dso_local i8* @"?_Myptr@?$_String_val@U?$_Simple_types@D@std@@@std@@QEAAPEADXZ"(%"class.std::_String_val"* nonnull dereferenceable(32) %0) #2 comdat align 2 !dbg !1884 {
  %2 = alloca %"class.std::_String_val"*, align 8
  %3 = alloca i8*, align 8
  store %"class.std::_String_val"* %0, %"class.std::_String_val"** %2, align 8, !tbaa !1675
  call void @llvm.dbg.declare(metadata %"class.std::_String_val"** %2, metadata !1886, metadata !DIExpression()), !dbg !1888
  %4 = load %"class.std::_String_val"*, %"class.std::_String_val"** %2, align 8
  %5 = bitcast i8** %3 to i8*, !dbg !1889
  call void @llvm.lifetime.start.p0i8(i64 8, i8* %5) #16, !dbg !1889
  call void @llvm.dbg.declare(metadata i8** %3, metadata !1887, metadata !DIExpression()), !dbg !1890
  %6 = getelementptr inbounds %"class.std::_String_val", %"class.std::_String_val"* %4, i32 0, i32 0, !dbg !1891
  %7 = bitcast %"union.std::_String_val<std::_Simple_types<char>>::_Bxty"* %6 to [16 x i8]*, !dbg !1892
  %8 = getelementptr inbounds [16 x i8], [16 x i8]* %7, i64 0, i64 0, !dbg !1891
  store i8* %8, i8** %3, align 8, !dbg !1890, !tbaa !1675
  %9 = call zeroext i1 @"?_Large_string_engaged@?$_String_val@U?$_Simple_types@D@std@@@std@@QEBA_NXZ"(%"class.std::_String_val"* nonnull dereferenceable(32) %4) #16, !dbg !1893
  br i1 %9, label %10, label %15, !dbg !1895

10:                                               ; preds = %1
  %11 = getelementptr inbounds %"class.std::_String_val", %"class.std::_String_val"* %4, i32 0, i32 0, !dbg !1896
  %12 = bitcast %"union.std::_String_val<std::_Simple_types<char>>::_Bxty"* %11 to i8**, !dbg !1898
  %13 = load i8*, i8** %12, align 8, !dbg !1898, !tbaa !1756
  %14 = call i8* @"??$_Unfancy@D@std@@YAPEADPEAD@Z"(i8* %13) #16, !dbg !1899
  store i8* %14, i8** %3, align 8, !dbg !1900, !tbaa !1675
  br label %15, !dbg !1901

15:                                               ; preds = %10, %1
  %16 = load i8*, i8** %3, align 8, !dbg !1902, !tbaa !1675
  %17 = bitcast i8** %3 to i8*, !dbg !1903
  call void @llvm.lifetime.end.p0i8(i64 8, i8* %17) #16, !dbg !1903
  ret i8* %16, !dbg !1904
}

; Function Attrs: inlinehint nounwind uwtable mustprogress
define linkonce_odr dso_local i8* @"?move@?$_Char_traits@DH@std@@SAPEADQEADQEBD_K@Z"(i8* %0, i8* %1, i64 %2) #7 comdat align 2 !dbg !1905 {
  %4 = alloca i64, align 8
  %5 = alloca i8*, align 8
  %6 = alloca i8*, align 8
  store i64 %2, i64* %4, align 8, !tbaa !1832
  call void @llvm.dbg.declare(metadata i64* %4, metadata !1907, metadata !DIExpression()), !dbg !1910
  store i8* %1, i8** %5, align 8, !tbaa !1675
  call void @llvm.dbg.declare(metadata i8** %5, metadata !1908, metadata !DIExpression()), !dbg !1911
  store i8* %0, i8** %6, align 8, !tbaa !1675
  call void @llvm.dbg.declare(metadata i8** %6, metadata !1909, metadata !DIExpression()), !dbg !1912
  %7 = load i8*, i8** %6, align 8, !dbg !1913, !tbaa !1675
  %8 = load i8*, i8** %5, align 8, !dbg !1914, !tbaa !1675
  %9 = load i64, i64* %4, align 8, !dbg !1915, !tbaa !1832
  %10 = mul i64 %9, 1, !dbg !1916
  call void @llvm.memmove.p0i8.p0i8.i64(i8* align 1 %7, i8* align 1 %8, i64 %10, i1 false), !dbg !1917
  %11 = load i8*, i8** %6, align 8, !dbg !1918, !tbaa !1675
  ret i8* %11, !dbg !1919
}

; Function Attrs: uwtable mustprogress
define linkonce_odr dso_local nonnull align 8 dereferenceable(32) %"class.std::basic_string"* @"??$_Reallocate_for@V<lambda_1>@?0??assign@?$basic_string@DU?$char_traits@D@std@@V?$allocator@D@2@@std@@QEAAAEAV34@QEBD_K@Z@PEBD@?$basic_string@DU?$char_traits@D@std@@V?$allocator@D@2@@std@@AEAAAEAV01@_KV<lambda_1>@?0??assign@01@QEAAAEAV01@QEBD0@Z@PEBD@Z"(%"class.std::basic_string"* nonnull dereferenceable(32) %0, i64 %1, i8 %2, i8* %3) #0 comdat align 2 !dbg !1920 {
  %5 = alloca %class.anon, align 1
  %6 = alloca i8*, align 8
  %7 = alloca i64, align 8
  %8 = alloca %"class.std::basic_string"*, align 8
  %9 = alloca i64, align 8
  %10 = alloca i64, align 8
  %11 = alloca %"class.std::allocator"*, align 8
  %12 = alloca i8*, align 8
  %13 = getelementptr inbounds %class.anon, %class.anon* %5, i32 0, i32 0
  store i8 %2, i8* %13, align 1
  store i8* %3, i8** %6, align 8, !tbaa !1675
  call void @llvm.dbg.declare(metadata i8** %6, metadata !1931, metadata !DIExpression()), !dbg !1940
  call void @llvm.dbg.declare(metadata %class.anon* %5, metadata !1932, metadata !DIExpression()), !dbg !1941
  store i64 %1, i64* %7, align 8, !tbaa !1832
  call void @llvm.dbg.declare(metadata i64* %7, metadata !1933, metadata !DIExpression()), !dbg !1942
  store %"class.std::basic_string"* %0, %"class.std::basic_string"** %8, align 8, !tbaa !1675
  call void @llvm.dbg.declare(metadata %"class.std::basic_string"** %8, metadata !1934, metadata !DIExpression()), !dbg !1943
  %14 = load %"class.std::basic_string"*, %"class.std::basic_string"** %8, align 8
  %15 = load i64, i64* %7, align 8, !dbg !1944, !tbaa !1832
  %16 = call i64 @"?max_size@?$basic_string@DU?$char_traits@D@std@@V?$allocator@D@2@@std@@QEBA_KXZ"(%"class.std::basic_string"* nonnull dereferenceable(32) %14) #16, !dbg !1946
  %17 = icmp ugt i64 %15, %16, !dbg !1947
  br i1 %17, label %18, label %19, !dbg !1948

18:                                               ; preds = %4
  call void @"?_Xlen_string@std@@YAXXZ"() #18, !dbg !1949
  unreachable, !dbg !1949

19:                                               ; preds = %4
  %20 = bitcast i64* %9 to i8*, !dbg !1951
  call void @llvm.lifetime.start.p0i8(i64 8, i8* %20) #16, !dbg !1951
  call void @llvm.dbg.declare(metadata i64* %9, metadata !1935, metadata !DIExpression()), !dbg !1952
  %21 = getelementptr inbounds %"class.std::basic_string", %"class.std::basic_string"* %14, i32 0, i32 0, !dbg !1953
  %22 = getelementptr inbounds %"class.std::_Compressed_pair", %"class.std::_Compressed_pair"* %21, i32 0, i32 0, !dbg !1954
  %23 = getelementptr inbounds %"class.std::_String_val", %"class.std::_String_val"* %22, i32 0, i32 2, !dbg !1955
  %24 = load i64, i64* %23, align 8, !dbg !1955, !tbaa !1754
  store i64 %24, i64* %9, align 8, !dbg !1952, !tbaa !1832
  %25 = bitcast i64* %10 to i8*, !dbg !1956
  call void @llvm.lifetime.start.p0i8(i64 8, i8* %25) #16, !dbg !1956
  call void @llvm.dbg.declare(metadata i64* %10, metadata !1936, metadata !DIExpression()), !dbg !1957
  %26 = load i64, i64* %7, align 8, !dbg !1958, !tbaa !1832
  %27 = call i64 @"?_Calculate_growth@?$basic_string@DU?$char_traits@D@std@@V?$allocator@D@2@@std@@AEBA_K_K@Z"(%"class.std::basic_string"* nonnull dereferenceable(32) %14, i64 %26) #16, !dbg !1959
  store i64 %27, i64* %10, align 8, !dbg !1957, !tbaa !1832
  %28 = bitcast %"class.std::allocator"** %11 to i8*, !dbg !1960
  call void @llvm.lifetime.start.p0i8(i64 8, i8* %28) #16, !dbg !1960
  call void @llvm.dbg.declare(metadata %"class.std::allocator"** %11, metadata !1937, metadata !DIExpression()), !dbg !1961
  %29 = call nonnull align 1 dereferenceable(1) %"class.std::allocator"* @"?_Getal@?$basic_string@DU?$char_traits@D@std@@V?$allocator@D@2@@std@@AEAAAEAV?$allocator@D@2@XZ"(%"class.std::basic_string"* nonnull dereferenceable(32) %14) #16, !dbg !1962
  store %"class.std::allocator"* %29, %"class.std::allocator"** %11, align 8, !dbg !1961, !tbaa !1675
  %30 = bitcast i8** %12 to i8*, !dbg !1963
  call void @llvm.lifetime.start.p0i8(i64 8, i8* %30) #16, !dbg !1963
  call void @llvm.dbg.declare(metadata i8** %12, metadata !1938, metadata !DIExpression()), !dbg !1964
  %31 = load %"class.std::allocator"*, %"class.std::allocator"** %11, align 8, !dbg !1965, !tbaa !1675
  %32 = load i64, i64* %10, align 8, !dbg !1966, !tbaa !1832
  %33 = add i64 %32, 1, !dbg !1967
  %34 = call i8* @"?allocate@?$allocator@D@std@@QEAAPEAD_K@Z"(%"class.std::allocator"* nonnull dereferenceable(1) %31, i64 %33), !dbg !1968, !heapallocsite !23
  store i8* %34, i8** %12, align 8, !dbg !1964, !tbaa !1675
  %35 = getelementptr inbounds %"class.std::basic_string", %"class.std::basic_string"* %14, i32 0, i32 0, !dbg !1969
  %36 = getelementptr inbounds %"class.std::_Compressed_pair", %"class.std::_Compressed_pair"* %35, i32 0, i32 0, !dbg !1970
  %37 = bitcast %"class.std::_String_val"* %36 to %"struct.std::_Container_base0"*, !dbg !1969
  call void @"?_Orphan_all@_Container_base0@std@@QEAAXXZ"(%"struct.std::_Container_base0"* nonnull dereferenceable(1) %37) #16, !dbg !1971
  %38 = load i64, i64* %7, align 8, !dbg !1972, !tbaa !1832
  %39 = getelementptr inbounds %"class.std::basic_string", %"class.std::basic_string"* %14, i32 0, i32 0, !dbg !1973
  %40 = getelementptr inbounds %"class.std::_Compressed_pair", %"class.std::_Compressed_pair"* %39, i32 0, i32 0, !dbg !1974
  %41 = getelementptr inbounds %"class.std::_String_val", %"class.std::_String_val"* %40, i32 0, i32 1, !dbg !1975
  store i64 %38, i64* %41, align 8, !dbg !1976, !tbaa !1745
  %42 = load i64, i64* %10, align 8, !dbg !1977, !tbaa !1832
  %43 = getelementptr inbounds %"class.std::basic_string", %"class.std::basic_string"* %14, i32 0, i32 0, !dbg !1978
  %44 = getelementptr inbounds %"class.std::_Compressed_pair", %"class.std::_Compressed_pair"* %43, i32 0, i32 0, !dbg !1979
  %45 = getelementptr inbounds %"class.std::_String_val", %"class.std::_String_val"* %44, i32 0, i32 2, !dbg !1980
  store i64 %42, i64* %45, align 8, !dbg !1981, !tbaa !1754
  %46 = load i8*, i8** %6, align 8, !dbg !1982, !tbaa !1675
  %47 = load i64, i64* %7, align 8, !dbg !1983, !tbaa !1832
  %48 = load i8*, i8** %12, align 8, !dbg !1984, !tbaa !1675
  %49 = call i8* @"??$_Unfancy@D@std@@YAPEADPEAD@Z"(i8* %48) #16, !dbg !1985
  call void @"??R<lambda_1>@?0??assign@?$basic_string@DU?$char_traits@D@std@@V?$allocator@D@2@@std@@QEAAAEAV23@QEBD_K@Z@QEBA?A?<auto>@@QEAD10@Z"(%class.anon* nonnull dereferenceable(1) %5, i8* %49, i64 %47, i8* %46), !dbg !1986
  %50 = load i64, i64* %9, align 8, !dbg !1987, !tbaa !1832
  %51 = icmp ule i64 16, %50, !dbg !1989
  br i1 %51, label %52, label %66, !dbg !1990

52:                                               ; preds = %19
  %53 = load %"class.std::allocator"*, %"class.std::allocator"** %11, align 8, !dbg !1991, !tbaa !1675
  %54 = load i64, i64* %9, align 8, !dbg !1993, !tbaa !1832
  %55 = add i64 %54, 1, !dbg !1994
  %56 = getelementptr inbounds %"class.std::basic_string", %"class.std::basic_string"* %14, i32 0, i32 0, !dbg !1995
  %57 = getelementptr inbounds %"class.std::_Compressed_pair", %"class.std::_Compressed_pair"* %56, i32 0, i32 0, !dbg !1996
  %58 = getelementptr inbounds %"class.std::_String_val", %"class.std::_String_val"* %57, i32 0, i32 0, !dbg !1997
  %59 = bitcast %"union.std::_String_val<std::_Simple_types<char>>::_Bxty"* %58 to i8**, !dbg !1998
  %60 = load i8*, i8** %59, align 8, !dbg !1998, !tbaa !1756
  call void @"?deallocate@?$allocator@D@std@@QEAAXQEAD_K@Z"(%"class.std::allocator"* nonnull dereferenceable(1) %53, i8* %60, i64 %55), !dbg !1999
  %61 = load i8*, i8** %12, align 8, !dbg !2000, !tbaa !1675
  %62 = getelementptr inbounds %"class.std::basic_string", %"class.std::basic_string"* %14, i32 0, i32 0, !dbg !2001
  %63 = getelementptr inbounds %"class.std::_Compressed_pair", %"class.std::_Compressed_pair"* %62, i32 0, i32 0, !dbg !2002
  %64 = getelementptr inbounds %"class.std::_String_val", %"class.std::_String_val"* %63, i32 0, i32 0, !dbg !2003
  %65 = bitcast %"union.std::_String_val<std::_Simple_types<char>>::_Bxty"* %64 to i8**, !dbg !2004
  store i8* %61, i8** %65, align 8, !dbg !2005, !tbaa !1756
  br label %71, !dbg !2006

66:                                               ; preds = %19
  %67 = getelementptr inbounds %"class.std::basic_string", %"class.std::basic_string"* %14, i32 0, i32 0, !dbg !2007
  %68 = getelementptr inbounds %"class.std::_Compressed_pair", %"class.std::_Compressed_pair"* %67, i32 0, i32 0, !dbg !2009
  %69 = getelementptr inbounds %"class.std::_String_val", %"class.std::_String_val"* %68, i32 0, i32 0, !dbg !2010
  %70 = bitcast %"union.std::_String_val<std::_Simple_types<char>>::_Bxty"* %69 to i8**, !dbg !2011
  call void @"??$_Construct_in_place@PEADAEBQEAD@std@@YAXAEAPEADAEBQEAD@Z"(i8** nonnull align 8 dereferenceable(8) %70, i8** nonnull align 8 dereferenceable(8) %12) #16, !dbg !2012
  br label %71

71:                                               ; preds = %66, %52
  %72 = bitcast i8** %12 to i8*, !dbg !2013
  call void @llvm.lifetime.end.p0i8(i64 8, i8* %72) #16, !dbg !2013
  %73 = bitcast %"class.std::allocator"** %11 to i8*, !dbg !2013
  call void @llvm.lifetime.end.p0i8(i64 8, i8* %73) #16, !dbg !2013
  %74 = bitcast i64* %10 to i8*, !dbg !2013
  call void @llvm.lifetime.end.p0i8(i64 8, i8* %74) #16, !dbg !2013
  %75 = bitcast i64* %9 to i8*, !dbg !2013
  call void @llvm.lifetime.end.p0i8(i64 8, i8* %75) #16, !dbg !2013
  ret %"class.std::basic_string"* %14, !dbg !2014
}

; Function Attrs: nounwind uwtable mustprogress
define linkonce_odr dso_local zeroext i1 @"?_Large_string_engaged@?$_String_val@U?$_Simple_types@D@std@@@std@@QEBA_NXZ"(%"class.std::_String_val"* nonnull dereferenceable(32) %0) #2 comdat align 2 !dbg !2015 {
  %2 = alloca %"class.std::_String_val"*, align 8
  store %"class.std::_String_val"* %0, %"class.std::_String_val"** %2, align 8, !tbaa !1675
  call void @llvm.dbg.declare(metadata %"class.std::_String_val"** %2, metadata !2017, metadata !DIExpression()), !dbg !2019
  %3 = load %"class.std::_String_val"*, %"class.std::_String_val"** %2, align 8
  %4 = getelementptr inbounds %"class.std::_String_val", %"class.std::_String_val"* %3, i32 0, i32 2, !dbg !2020
  %5 = load i64, i64* %4, align 8, !dbg !2020, !tbaa !1806
  %6 = icmp ule i64 16, %5, !dbg !2021
  ret i1 %6, !dbg !2022
}

; Function Attrs: nounwind uwtable mustprogress
define linkonce_odr dso_local i8* @"??$_Unfancy@D@std@@YAPEADPEAD@Z"(i8* %0) #2 comdat !dbg !2023 {
  %2 = alloca i8*, align 8
  store i8* %0, i8** %2, align 8, !tbaa !1675
  call void @llvm.dbg.declare(metadata i8** %2, metadata !2026, metadata !DIExpression()), !dbg !2027
  %3 = load i8*, i8** %2, align 8, !dbg !2028, !tbaa !1675
  ret i8* %3, !dbg !2029
}

; Function Attrs: argmemonly nofree nosync nounwind willreturn
declare void @llvm.memmove.p0i8.p0i8.i64(i8* nocapture writeonly, i8* nocapture readonly, i64, i1 immarg) #5

; Function Attrs: nounwind uwtable mustprogress
define linkonce_odr dso_local i64 @"?max_size@?$basic_string@DU?$char_traits@D@std@@V?$allocator@D@2@@std@@QEBA_KXZ"(%"class.std::basic_string"* nonnull dereferenceable(32) %0) #2 comdat align 2 !dbg !2030 {
  %2 = alloca %"class.std::basic_string"*, align 8
  %3 = alloca i64, align 8
  %4 = alloca i64, align 8
  %5 = alloca i64, align 8
  %6 = alloca i64, align 8
  %7 = alloca i64, align 8
  store %"class.std::basic_string"* %0, %"class.std::basic_string"** %2, align 8, !tbaa !1675
  call void @llvm.dbg.declare(metadata %"class.std::basic_string"** %2, metadata !2032, metadata !DIExpression()), !dbg !2036
  %8 = load %"class.std::basic_string"*, %"class.std::basic_string"** %2, align 8
  %9 = bitcast i64* %3 to i8*, !dbg !2037
  call void @llvm.lifetime.start.p0i8(i64 8, i8* %9) #16, !dbg !2037
  call void @llvm.dbg.declare(metadata i64* %3, metadata !2034, metadata !DIExpression()), !dbg !2038
  %10 = call nonnull align 1 dereferenceable(1) %"class.std::allocator"* @"?_Getal@?$basic_string@DU?$char_traits@D@std@@V?$allocator@D@2@@std@@AEBAAEBV?$allocator@D@2@XZ"(%"class.std::basic_string"* nonnull dereferenceable(32) %8) #16, !dbg !2039
  %11 = call i64 @"?max_size@?$_Default_allocator_traits@V?$allocator@D@std@@@std@@SA_KAEBV?$allocator@D@2@@Z"(%"class.std::allocator"* nonnull align 1 dereferenceable(1) %10) #16, !dbg !2040
  store i64 %11, i64* %3, align 8, !dbg !2038, !tbaa !1832
  %12 = bitcast i64* %4 to i8*, !dbg !2041
  call void @llvm.lifetime.start.p0i8(i64 8, i8* %12) #16, !dbg !2041
  call void @llvm.dbg.declare(metadata i64* %4, metadata !2035, metadata !DIExpression()), !dbg !2042
  %13 = bitcast i64* %5 to i8*, !dbg !2043
  call void @llvm.lifetime.start.p0i8(i64 8, i8* %13) #16, !dbg !2043
  store i64 16, i64* %5, align 8, !dbg !2043, !tbaa !1832
  %14 = call nonnull align 8 dereferenceable(8) i64* @"??$max@_K@std@@YAAEB_KAEB_K0@Z"(i64* nonnull align 8 dereferenceable(8) %3, i64* nonnull align 8 dereferenceable(8) %5) #16, !dbg !2044
  %15 = load i64, i64* %14, align 8, !dbg !2044, !tbaa !1832
  %16 = bitcast i64* %5 to i8*, !dbg !2044
  call void @llvm.lifetime.end.p0i8(i64 8, i8* %16) #16, !dbg !2044
  store i64 %15, i64* %4, align 8, !dbg !2042, !tbaa !1832
  %17 = bitcast i64* %6 to i8*, !dbg !2045
  call void @llvm.lifetime.start.p0i8(i64 8, i8* %17) #16, !dbg !2045
  %18 = load i64, i64* %4, align 8, !dbg !2045, !tbaa !1832
  %19 = sub i64 %18, 1, !dbg !2046
  store i64 %19, i64* %6, align 8, !dbg !2045, !tbaa !1832
  %20 = bitcast i64* %7 to i8*, !dbg !2047
  call void @llvm.lifetime.start.p0i8(i64 8, i8* %20) #16, !dbg !2047
  %21 = call i64 @"?max@?$numeric_limits@_J@std@@SA_JXZ"() #16, !dbg !2048
  store i64 %21, i64* %7, align 8, !dbg !2047, !tbaa !1832
  %22 = call nonnull align 8 dereferenceable(8) i64* @"??$min@_K@std@@YAAEB_KAEB_K0@Z"(i64* nonnull align 8 dereferenceable(8) %7, i64* nonnull align 8 dereferenceable(8) %6) #16, !dbg !2049
  %23 = load i64, i64* %22, align 8, !dbg !2049, !tbaa !1832
  %24 = bitcast i64* %7 to i8*, !dbg !2050
  call void @llvm.lifetime.end.p0i8(i64 8, i8* %24) #16, !dbg !2050
  %25 = bitcast i64* %6 to i8*, !dbg !2050
  call void @llvm.lifetime.end.p0i8(i64 8, i8* %25) #16, !dbg !2050
  %26 = bitcast i64* %4 to i8*, !dbg !2051
  call void @llvm.lifetime.end.p0i8(i64 8, i8* %26) #16, !dbg !2051
  %27 = bitcast i64* %3 to i8*, !dbg !2051
  call void @llvm.lifetime.end.p0i8(i64 8, i8* %27) #16, !dbg !2051
  ret i64 %23, !dbg !2050
}

; Function Attrs: inlinehint noreturn uwtable mustprogress
define linkonce_odr dso_local void @"?_Xlen_string@std@@YAXXZ"() #8 comdat !dbg !2052 {
  call void @"?_Xlength_error@std@@YAXPEBD@Z"(i8* getelementptr inbounds ([16 x i8], [16 x i8]* @"??_C@_0BA@JFNIOLAK@string?5too?5long?$AA@", i64 0, i64 0)) #18, !dbg !2053
  unreachable, !dbg !2053
}

; Function Attrs: nounwind uwtable mustprogress
define linkonce_odr dso_local i64 @"?_Calculate_growth@?$basic_string@DU?$char_traits@D@std@@V?$allocator@D@2@@std@@AEBA_K_K@Z"(%"class.std::basic_string"* nonnull dereferenceable(32) %0, i64 %1) #2 comdat align 2 !dbg !2054 {
  %3 = alloca i64, align 8
  %4 = alloca %"class.std::basic_string"*, align 8
  store i64 %1, i64* %3, align 8, !tbaa !1832
  call void @llvm.dbg.declare(metadata i64* %3, metadata !2056, metadata !DIExpression()), !dbg !2058
  store %"class.std::basic_string"* %0, %"class.std::basic_string"** %4, align 8, !tbaa !1675
  call void @llvm.dbg.declare(metadata %"class.std::basic_string"** %4, metadata !2057, metadata !DIExpression()), !dbg !2059
  %5 = load %"class.std::basic_string"*, %"class.std::basic_string"** %4, align 8
  %6 = call i64 @"?max_size@?$basic_string@DU?$char_traits@D@std@@V?$allocator@D@2@@std@@QEBA_KXZ"(%"class.std::basic_string"* nonnull dereferenceable(32) %5) #16, !dbg !2060
  %7 = getelementptr inbounds %"class.std::basic_string", %"class.std::basic_string"* %5, i32 0, i32 0, !dbg !2061
  %8 = getelementptr inbounds %"class.std::_Compressed_pair", %"class.std::_Compressed_pair"* %7, i32 0, i32 0, !dbg !2062
  %9 = getelementptr inbounds %"class.std::_String_val", %"class.std::_String_val"* %8, i32 0, i32 2, !dbg !2063
  %10 = load i64, i64* %9, align 8, !dbg !2063, !tbaa !1754
  %11 = load i64, i64* %3, align 8, !dbg !2064, !tbaa !1832
  %12 = call i64 @"?_Calculate_growth@?$basic_string@DU?$char_traits@D@std@@V?$allocator@D@2@@std@@CA_K_K00@Z"(i64 %11, i64 %10, i64 %6) #16, !dbg !2065
  ret i64 %12, !dbg !2066
}

; Function Attrs: nounwind uwtable mustprogress
define linkonce_odr dso_local nonnull align 1 dereferenceable(1) %"class.std::allocator"* @"?_Getal@?$basic_string@DU?$char_traits@D@std@@V?$allocator@D@2@@std@@AEAAAEAV?$allocator@D@2@XZ"(%"class.std::basic_string"* nonnull dereferenceable(32) %0) #2 comdat align 2 !dbg !2067 {
  %2 = alloca %"class.std::basic_string"*, align 8
  store %"class.std::basic_string"* %0, %"class.std::basic_string"** %2, align 8, !tbaa !1675
  call void @llvm.dbg.declare(metadata %"class.std::basic_string"** %2, metadata !2069, metadata !DIExpression()), !dbg !2070
  %3 = load %"class.std::basic_string"*, %"class.std::basic_string"** %2, align 8
  %4 = getelementptr inbounds %"class.std::basic_string", %"class.std::basic_string"* %3, i32 0, i32 0, !dbg !2071
  %5 = call nonnull align 1 dereferenceable(1) %"class.std::allocator"* @"?_Get_first@?$_Compressed_pair@V?$allocator@D@std@@V?$_String_val@U?$_Simple_types@D@std@@@2@$00@std@@QEAAAEAV?$allocator@D@2@XZ"(%"class.std::_Compressed_pair"* nonnull dereferenceable(32) %4) #16, !dbg !2072
  ret %"class.std::allocator"* %5, !dbg !2073
}

; Function Attrs: uwtable mustprogress
define linkonce_odr dso_local i8* @"?allocate@?$allocator@D@std@@QEAAPEAD_K@Z"(%"class.std::allocator"* nonnull dereferenceable(1) %0, i64 %1) #0 comdat align 2 !dbg !2074 {
  %3 = alloca i64, align 8
  %4 = alloca %"class.std::allocator"*, align 8
  store i64 %1, i64* %3, align 8, !tbaa !1832
  call void @llvm.dbg.declare(metadata i64* %3, metadata !2076, metadata !DIExpression()), !dbg !2078
  store %"class.std::allocator"* %0, %"class.std::allocator"** %4, align 8, !tbaa !1675
  call void @llvm.dbg.declare(metadata %"class.std::allocator"** %4, metadata !2077, metadata !DIExpression()), !dbg !2079
  %5 = load %"class.std::allocator"*, %"class.std::allocator"** %4, align 8
  %6 = load i64, i64* %3, align 8, !dbg !2080, !tbaa !1832
  %7 = call i64 @"??$_Get_size_of_n@$00@std@@YA_K_K@Z"(i64 %6), !dbg !2081
  %8 = call i8* @"??$_Allocate@$0BA@U_Default_allocate_traits@std@@$0A@@std@@YAPEAX_K@Z"(i64 %7), !dbg !2082, !heapallocsite !23
  ret i8* %8, !dbg !2083
}

; Function Attrs: nounwind uwtable mustprogress
define linkonce_odr dso_local void @"?_Orphan_all@_Container_base0@std@@QEAAXXZ"(%"struct.std::_Container_base0"* nonnull dereferenceable(1) %0) #2 comdat align 2 !dbg !2084 {
  %2 = alloca %"struct.std::_Container_base0"*, align 8
  store %"struct.std::_Container_base0"* %0, %"struct.std::_Container_base0"** %2, align 8, !tbaa !1675
  call void @llvm.dbg.declare(metadata %"struct.std::_Container_base0"** %2, metadata !2086, metadata !DIExpression()), !dbg !2087
  %3 = load %"struct.std::_Container_base0"*, %"struct.std::_Container_base0"** %2, align 8
  ret void, !dbg !2088
}

; Function Attrs: inlinehint nounwind uwtable mustprogress
define linkonce_odr dso_local void @"??R<lambda_1>@?0??assign@?$basic_string@DU?$char_traits@D@std@@V?$allocator@D@2@@std@@QEAAAEAV23@QEBD_K@Z@QEBA?A?<auto>@@QEAD10@Z"(%class.anon* nonnull dereferenceable(1) %0, i8* %1, i64 %2, i8* %3) #7 comdat align 2 !dbg !2089 {
  %5 = alloca i8*, align 8
  %6 = alloca i64, align 8
  %7 = alloca i8*, align 8
  %8 = alloca %class.anon*, align 8
  %9 = alloca i8, align 1
  store i8* %3, i8** %5, align 8, !tbaa !1675
  call void @llvm.dbg.declare(metadata i8** %5, metadata !2099, metadata !DIExpression()), !dbg !2104
  store i64 %2, i64* %6, align 8, !tbaa !1832
  call void @llvm.dbg.declare(metadata i64* %6, metadata !2100, metadata !DIExpression()), !dbg !2105
  store i8* %1, i8** %7, align 8, !tbaa !1675
  call void @llvm.dbg.declare(metadata i8** %7, metadata !2101, metadata !DIExpression()), !dbg !2106
  store %class.anon* %0, %class.anon** %8, align 8, !tbaa !1675
  call void @llvm.dbg.declare(metadata %class.anon** %8, metadata !2102, metadata !DIExpression()), !dbg !2107
  %10 = load %class.anon*, %class.anon** %8, align 8
  %11 = load i64, i64* %6, align 8, !dbg !2108, !tbaa !1832
  %12 = load i8*, i8** %5, align 8, !dbg !2109, !tbaa !1675
  %13 = load i8*, i8** %7, align 8, !dbg !2110, !tbaa !1675
  %14 = call i8* @"?copy@?$_Char_traits@DH@std@@SAPEADQEADQEBD_K@Z"(i8* %13, i8* %12, i64 %11) #16, !dbg !2111
  call void @llvm.lifetime.start.p0i8(i64 1, i8* %9) #16, !dbg !2112
  store i8 0, i8* %9, align 1, !dbg !2112, !tbaa !1756
  %15 = load i8*, i8** %7, align 8, !dbg !2113, !tbaa !1675
  %16 = load i64, i64* %6, align 8, !dbg !2114, !tbaa !1832
  %17 = getelementptr inbounds i8, i8* %15, i64 %16, !dbg !2113
  call void @"?assign@?$_Narrow_char_traits@DH@std@@SAXAEADAEBD@Z"(i8* nonnull align 1 dereferenceable(1) %17, i8* nonnull align 1 dereferenceable(1) %9) #16, !dbg !2115
  call void @llvm.lifetime.end.p0i8(i64 1, i8* %9) #16, !dbg !2115
  ret void, !dbg !2116
}

; Function Attrs: nounwind uwtable mustprogress
define linkonce_odr dso_local void @"?deallocate@?$allocator@D@std@@QEAAXQEAD_K@Z"(%"class.std::allocator"* nonnull dereferenceable(1) %0, i8* %1, i64 %2) #2 comdat align 2 !dbg !2117 {
  %4 = alloca i64, align 8
  %5 = alloca i8*, align 8
  %6 = alloca %"class.std::allocator"*, align 8
  store i64 %2, i64* %4, align 8, !tbaa !1832
  call void @llvm.dbg.declare(metadata i64* %4, metadata !2119, metadata !DIExpression()), !dbg !2122
  store i8* %1, i8** %5, align 8, !tbaa !1675
  call void @llvm.dbg.declare(metadata i8** %5, metadata !2120, metadata !DIExpression()), !dbg !2123
  store %"class.std::allocator"* %0, %"class.std::allocator"** %6, align 8, !tbaa !1675
  call void @llvm.dbg.declare(metadata %"class.std::allocator"** %6, metadata !2121, metadata !DIExpression()), !dbg !2124
  %7 = load %"class.std::allocator"*, %"class.std::allocator"** %6, align 8
  %8 = load i64, i64* %4, align 8, !dbg !2125, !tbaa !1832
  %9 = mul i64 1, %8, !dbg !2126
  %10 = load i8*, i8** %5, align 8, !dbg !2127, !tbaa !1675
  call void @"??$_Deallocate@$0BA@$0A@@std@@YAXPEAX_K@Z"(i8* %10, i64 %9) #16, !dbg !2128
  ret void, !dbg !2129
}

; Function Attrs: nounwind uwtable mustprogress
define linkonce_odr dso_local void @"??$_Construct_in_place@PEADAEBQEAD@std@@YAXAEAPEADAEBQEAD@Z"(i8** nonnull align 8 dereferenceable(8) %0, i8** nonnull align 8 dereferenceable(8) %1) #2 comdat !dbg !2130 {
  %3 = alloca i8**, align 8
  %4 = alloca i8**, align 8
  store i8** %1, i8*** %3, align 8, !tbaa !1675
  call void @llvm.dbg.declare(metadata i8*** %3, metadata !2136, metadata !DIExpression()), !dbg !2143
  store i8** %0, i8*** %4, align 8, !tbaa !1675
  call void @llvm.dbg.declare(metadata i8*** %4, metadata !2137, metadata !DIExpression()), !dbg !2144
  %5 = load i8**, i8*** %4, align 8, !dbg !2145, !tbaa !1675
  %6 = call i8** @"??$addressof@PEAD@std@@YAPEAPEADAEAPEAD@Z"(i8** nonnull align 8 dereferenceable(8) %5) #16, !dbg !2146
  %7 = call i8* @"??$_Voidify_iter@PEAPEAD@std@@YAPEAXPEAPEAD@Z"(i8** %6) #16, !dbg !2147
  %8 = bitcast i8* %7 to i8**, !dbg !2148
  %9 = load i8**, i8*** %3, align 8, !dbg !2149, !tbaa !1675
  %10 = call nonnull align 8 dereferenceable(8) i8** @"??$forward@AEBQEAD@std@@YAAEBQEADAEBQEAD@Z"(i8** nonnull align 8 dereferenceable(8) %9) #16, !dbg !2150
  %11 = load i8*, i8** %10, align 8, !dbg !2150, !tbaa !1675
  store i8* %11, i8** %8, align 8, !dbg !2148, !tbaa !1675
  ret void, !dbg !2151
}

; Function Attrs: nounwind uwtable mustprogress
define linkonce_odr dso_local i64 @"?max_size@?$_Default_allocator_traits@V?$allocator@D@std@@@std@@SA_KAEBV?$allocator@D@2@@Z"(%"class.std::allocator"* nonnull align 1 dereferenceable(1) %0) #2 comdat align 2 !dbg !2152 {
  %2 = alloca %"class.std::allocator"*, align 8
  store %"class.std::allocator"* %0, %"class.std::allocator"** %2, align 8, !tbaa !1675
  call void @llvm.dbg.declare(metadata %"class.std::allocator"** %2, metadata !2154, metadata !DIExpression()), !dbg !2155
  ret i64 -1, !dbg !2156
}

; Function Attrs: nounwind uwtable mustprogress
define linkonce_odr dso_local nonnull align 1 dereferenceable(1) %"class.std::allocator"* @"?_Getal@?$basic_string@DU?$char_traits@D@std@@V?$allocator@D@2@@std@@AEBAAEBV?$allocator@D@2@XZ"(%"class.std::basic_string"* nonnull dereferenceable(32) %0) #2 comdat align 2 !dbg !2157 {
  %2 = alloca %"class.std::basic_string"*, align 8
  store %"class.std::basic_string"* %0, %"class.std::basic_string"** %2, align 8, !tbaa !1675
  call void @llvm.dbg.declare(metadata %"class.std::basic_string"** %2, metadata !2159, metadata !DIExpression()), !dbg !2160
  %3 = load %"class.std::basic_string"*, %"class.std::basic_string"** %2, align 8
  %4 = getelementptr inbounds %"class.std::basic_string", %"class.std::basic_string"* %3, i32 0, i32 0, !dbg !2161
  %5 = call nonnull align 1 dereferenceable(1) %"class.std::allocator"* @"?_Get_first@?$_Compressed_pair@V?$allocator@D@std@@V?$_String_val@U?$_Simple_types@D@std@@@2@$00@std@@QEBAAEBV?$allocator@D@2@XZ"(%"class.std::_Compressed_pair"* nonnull dereferenceable(32) %4) #16, !dbg !2162
  ret %"class.std::allocator"* %5, !dbg !2163
}

; Function Attrs: nounwind uwtable mustprogress
define linkonce_odr dso_local nonnull align 8 dereferenceable(8) i64* @"??$max@_K@std@@YAAEB_KAEB_K0@Z"(i64* nonnull align 8 dereferenceable(8) %0, i64* nonnull align 8 dereferenceable(8) %1) #2 comdat !dbg !2164 {
  %3 = alloca i64*, align 8
  %4 = alloca i64*, align 8
  store i64* %1, i64** %3, align 8, !tbaa !1675
  call void @llvm.dbg.declare(metadata i64** %3, metadata !2170, metadata !DIExpression()), !dbg !2174
  store i64* %0, i64** %4, align 8, !tbaa !1675
  call void @llvm.dbg.declare(metadata i64** %4, metadata !2171, metadata !DIExpression()), !dbg !2175
  %5 = load i64*, i64** %4, align 8, !dbg !2176, !tbaa !1675
  %6 = load i64, i64* %5, align 8, !dbg !2176, !tbaa !1832
  %7 = load i64*, i64** %3, align 8, !dbg !2177, !tbaa !1675
  %8 = load i64, i64* %7, align 8, !dbg !2177, !tbaa !1832
  %9 = icmp ult i64 %6, %8, !dbg !2178
  br i1 %9, label %10, label %12, !dbg !2176

10:                                               ; preds = %2
  %11 = load i64*, i64** %3, align 8, !dbg !2179, !tbaa !1675
  br label %14, !dbg !2176

12:                                               ; preds = %2
  %13 = load i64*, i64** %4, align 8, !dbg !2180, !tbaa !1675
  br label %14, !dbg !2176

14:                                               ; preds = %12, %10
  %15 = phi i64* [ %11, %10 ], [ %13, %12 ], !dbg !2176
  ret i64* %15, !dbg !2181
}

; Function Attrs: nounwind uwtable mustprogress
define linkonce_odr dso_local nonnull align 8 dereferenceable(8) i64* @"??$min@_K@std@@YAAEB_KAEB_K0@Z"(i64* nonnull align 8 dereferenceable(8) %0, i64* nonnull align 8 dereferenceable(8) %1) #2 comdat !dbg !2182 {
  %3 = alloca i64*, align 8
  %4 = alloca i64*, align 8
  store i64* %1, i64** %3, align 8, !tbaa !1675
  call void @llvm.dbg.declare(metadata i64** %3, metadata !2184, metadata !DIExpression()), !dbg !2186
  store i64* %0, i64** %4, align 8, !tbaa !1675
  call void @llvm.dbg.declare(metadata i64** %4, metadata !2185, metadata !DIExpression()), !dbg !2187
  %5 = load i64*, i64** %3, align 8, !dbg !2188, !tbaa !1675
  %6 = load i64, i64* %5, align 8, !dbg !2188, !tbaa !1832
  %7 = load i64*, i64** %4, align 8, !dbg !2189, !tbaa !1675
  %8 = load i64, i64* %7, align 8, !dbg !2189, !tbaa !1832
  %9 = icmp ult i64 %6, %8, !dbg !2190
  br i1 %9, label %10, label %12, !dbg !2188

10:                                               ; preds = %2
  %11 = load i64*, i64** %3, align 8, !dbg !2191, !tbaa !1675
  br label %14, !dbg !2188

12:                                               ; preds = %2
  %13 = load i64*, i64** %4, align 8, !dbg !2192, !tbaa !1675
  br label %14, !dbg !2188

14:                                               ; preds = %12, %10
  %15 = phi i64* [ %11, %10 ], [ %13, %12 ], !dbg !2188
  ret i64* %15, !dbg !2193
}

; Function Attrs: nounwind uwtable mustprogress
define linkonce_odr dso_local i64 @"?max@?$numeric_limits@_J@std@@SA_JXZ"() #2 comdat align 2 !dbg !2194 {
  ret i64 9223372036854775807, !dbg !2249
}

; Function Attrs: nounwind uwtable mustprogress
define linkonce_odr dso_local nonnull align 1 dereferenceable(1) %"class.std::allocator"* @"?_Get_first@?$_Compressed_pair@V?$allocator@D@std@@V?$_String_val@U?$_Simple_types@D@std@@@2@$00@std@@QEBAAEBV?$allocator@D@2@XZ"(%"class.std::_Compressed_pair"* nonnull dereferenceable(32) %0) #2 comdat align 2 !dbg !2250 {
  %2 = alloca %"class.std::_Compressed_pair"*, align 8
  store %"class.std::_Compressed_pair"* %0, %"class.std::_Compressed_pair"** %2, align 8, !tbaa !1675
  call void @llvm.dbg.declare(metadata %"class.std::_Compressed_pair"** %2, metadata !2252, metadata !DIExpression()), !dbg !2254
  %3 = load %"class.std::_Compressed_pair"*, %"class.std::_Compressed_pair"** %2, align 8
  %4 = bitcast %"class.std::_Compressed_pair"* %3 to %"class.std::allocator"*, !dbg !2255
  ret %"class.std::allocator"* %4, !dbg !2256
}

; Function Attrs: noreturn
declare dso_local void @"?_Xlength_error@std@@YAXPEBD@Z"(i8*) #9

; Function Attrs: nounwind uwtable mustprogress
define linkonce_odr dso_local i64 @"?_Calculate_growth@?$basic_string@DU?$char_traits@D@std@@V?$allocator@D@2@@std@@CA_K_K00@Z"(i64 %0, i64 %1, i64 %2) #2 comdat align 2 !dbg !2257 {
  %4 = alloca i64, align 8
  %5 = alloca i64, align 8
  %6 = alloca i64, align 8
  %7 = alloca i64, align 8
  %8 = alloca i64, align 8
  %9 = alloca i32, align 4
  %10 = alloca i64, align 8
  store i64 %2, i64* %5, align 8, !tbaa !1832
  call void @llvm.dbg.declare(metadata i64* %5, metadata !2259, metadata !DIExpression()), !dbg !2263
  store i64 %1, i64* %6, align 8, !tbaa !1832
  call void @llvm.dbg.declare(metadata i64* %6, metadata !2260, metadata !DIExpression()), !dbg !2264
  store i64 %0, i64* %7, align 8, !tbaa !1832
  call void @llvm.dbg.declare(metadata i64* %7, metadata !2261, metadata !DIExpression()), !dbg !2265
  %11 = bitcast i64* %8 to i8*, !dbg !2266
  call void @llvm.lifetime.start.p0i8(i64 8, i8* %11) #16, !dbg !2266
  call void @llvm.dbg.declare(metadata i64* %8, metadata !2262, metadata !DIExpression()), !dbg !2267
  %12 = load i64, i64* %7, align 8, !dbg !2268, !tbaa !1832
  %13 = or i64 %12, 15, !dbg !2269
  store i64 %13, i64* %8, align 8, !dbg !2267, !tbaa !1832
  %14 = load i64, i64* %8, align 8, !dbg !2270, !tbaa !1832
  %15 = load i64, i64* %5, align 8, !dbg !2272, !tbaa !1832
  %16 = icmp ugt i64 %14, %15, !dbg !2273
  br i1 %16, label %17, label %19, !dbg !2274

17:                                               ; preds = %3
  %18 = load i64, i64* %5, align 8, !dbg !2275, !tbaa !1832
  store i64 %18, i64* %4, align 8, !dbg !2277
  store i32 1, i32* %9, align 4
  br label %37, !dbg !2277

19:                                               ; preds = %3
  %20 = load i64, i64* %6, align 8, !dbg !2278, !tbaa !1832
  %21 = load i64, i64* %5, align 8, !dbg !2280, !tbaa !1832
  %22 = load i64, i64* %6, align 8, !dbg !2281, !tbaa !1832
  %23 = udiv i64 %22, 2, !dbg !2282
  %24 = sub i64 %21, %23, !dbg !2283
  %25 = icmp ugt i64 %20, %24, !dbg !2284
  br i1 %25, label %26, label %28, !dbg !2285

26:                                               ; preds = %19
  %27 = load i64, i64* %5, align 8, !dbg !2286, !tbaa !1832
  store i64 %27, i64* %4, align 8, !dbg !2288
  store i32 1, i32* %9, align 4
  br label %37, !dbg !2288

28:                                               ; preds = %19
  %29 = bitcast i64* %10 to i8*, !dbg !2289
  call void @llvm.lifetime.start.p0i8(i64 8, i8* %29) #16, !dbg !2289
  %30 = load i64, i64* %6, align 8, !dbg !2289, !tbaa !1832
  %31 = load i64, i64* %6, align 8, !dbg !2290, !tbaa !1832
  %32 = udiv i64 %31, 2, !dbg !2291
  %33 = add i64 %30, %32, !dbg !2292
  store i64 %33, i64* %10, align 8, !dbg !2289, !tbaa !1832
  %34 = call nonnull align 8 dereferenceable(8) i64* @"??$max@_K@std@@YAAEB_KAEB_K0@Z"(i64* nonnull align 8 dereferenceable(8) %8, i64* nonnull align 8 dereferenceable(8) %10) #16, !dbg !2293
  %35 = load i64, i64* %34, align 8, !dbg !2293, !tbaa !1832
  store i64 %35, i64* %4, align 8, !dbg !2294
  %36 = bitcast i64* %10 to i8*, !dbg !2294
  call void @llvm.lifetime.end.p0i8(i64 8, i8* %36) #16, !dbg !2294
  store i32 1, i32* %9, align 4
  br label %37, !dbg !2294

37:                                               ; preds = %28, %26, %17
  %38 = bitcast i64* %8 to i8*, !dbg !2295
  call void @llvm.lifetime.end.p0i8(i64 8, i8* %38) #16, !dbg !2295
  %39 = load i64, i64* %4, align 8, !dbg !2295
  ret i64 %39, !dbg !2295
}

; Function Attrs: nounwind uwtable mustprogress
define linkonce_odr dso_local nonnull align 1 dereferenceable(1) %"class.std::allocator"* @"?_Get_first@?$_Compressed_pair@V?$allocator@D@std@@V?$_String_val@U?$_Simple_types@D@std@@@2@$00@std@@QEAAAEAV?$allocator@D@2@XZ"(%"class.std::_Compressed_pair"* nonnull dereferenceable(32) %0) #2 comdat align 2 !dbg !2296 {
  %2 = alloca %"class.std::_Compressed_pair"*, align 8
  store %"class.std::_Compressed_pair"* %0, %"class.std::_Compressed_pair"** %2, align 8, !tbaa !1675
  call void @llvm.dbg.declare(metadata %"class.std::_Compressed_pair"** %2, metadata !2298, metadata !DIExpression()), !dbg !2299
  %3 = load %"class.std::_Compressed_pair"*, %"class.std::_Compressed_pair"** %2, align 8
  %4 = bitcast %"class.std::_Compressed_pair"* %3 to %"class.std::allocator"*, !dbg !2300
  ret %"class.std::allocator"* %4, !dbg !2301
}

; Function Attrs: uwtable mustprogress
define linkonce_odr dso_local i8* @"??$_Allocate@$0BA@U_Default_allocate_traits@std@@$0A@@std@@YAPEAX_K@Z"(i64 %0) #0 comdat !dbg !2302 {
  %2 = alloca i8*, align 8
  %3 = alloca i64, align 8
  store i64 %0, i64* %3, align 8, !tbaa !1832
  call void @llvm.dbg.declare(metadata i64* %3, metadata !2306, metadata !DIExpression()), !dbg !2314
  %4 = load i64, i64* %3, align 8, !dbg !2315, !tbaa !1832
  %5 = icmp uge i64 %4, 4096, !dbg !2317
  br i1 %5, label %6, label %9, !dbg !2318

6:                                                ; preds = %1
  %7 = load i64, i64* %3, align 8, !dbg !2319, !tbaa !1832
  %8 = call i8* @"??$_Allocate_manually_vector_aligned@U_Default_allocate_traits@std@@@std@@YAPEAX_K@Z"(i64 %7), !dbg !2321, !heapallocsite !197
  store i8* %8, i8** %2, align 8, !dbg !2322
  br label %16, !dbg !2322

9:                                                ; preds = %1
  %10 = load i64, i64* %3, align 8, !dbg !2323, !tbaa !1832
  %11 = icmp ne i64 %10, 0, !dbg !2325
  br i1 %11, label %12, label %15, !dbg !2326

12:                                               ; preds = %9
  %13 = load i64, i64* %3, align 8, !dbg !2327, !tbaa !1832
  %14 = call i8* @"?_Allocate@_Default_allocate_traits@std@@SAPEAX_K@Z"(i64 %13), !dbg !2329, !heapallocsite !197
  store i8* %14, i8** %2, align 8, !dbg !2330
  br label %16, !dbg !2330

15:                                               ; preds = %9
  store i8* null, i8** %2, align 8, !dbg !2331
  br label %16, !dbg !2331

16:                                               ; preds = %15, %12, %6
  %17 = load i8*, i8** %2, align 8, !dbg !2332
  ret i8* %17, !dbg !2332
}

; Function Attrs: nounwind uwtable mustprogress
define linkonce_odr dso_local i64 @"??$_Get_size_of_n@$00@std@@YA_K_K@Z"(i64 %0) #2 comdat !dbg !2333 {
  %2 = alloca i64, align 8
  %3 = alloca i8, align 1
  store i64 %0, i64* %2, align 8, !tbaa !1832
  call void @llvm.dbg.declare(metadata i64* %2, metadata !2335, metadata !DIExpression()), !dbg !2339
  call void @llvm.lifetime.start.p0i8(i64 1, i8* %3) #16, !dbg !2340
  call void @llvm.dbg.declare(metadata i8* %3, metadata !2336, metadata !DIExpression()), !dbg !2341
  store i8 0, i8* %3, align 1, !dbg !2341, !tbaa !2342
  %4 = load i64, i64* %2, align 8, !dbg !2344, !tbaa !1832
  %5 = mul i64 %4, 1, !dbg !2345
  call void @llvm.lifetime.end.p0i8(i64 1, i8* %3) #16, !dbg !2346
  ret i64 %5, !dbg !2347
}

; Function Attrs: uwtable mustprogress
define linkonce_odr dso_local i8* @"??$_Allocate_manually_vector_aligned@U_Default_allocate_traits@std@@@std@@YAPEAX_K@Z"(i64 %0) #0 comdat !dbg !2348 {
  %2 = alloca i64, align 8
  %3 = alloca i64, align 8
  %4 = alloca i64, align 8
  %5 = alloca i8*, align 8
  store i64 %0, i64* %2, align 8, !tbaa !1832
  call void @llvm.dbg.declare(metadata i64* %2, metadata !2350, metadata !DIExpression()), !dbg !2358
  %6 = bitcast i64* %3 to i8*, !dbg !2359
  call void @llvm.lifetime.start.p0i8(i64 8, i8* %6) #16, !dbg !2359
  call void @llvm.dbg.declare(metadata i64* %3, metadata !2351, metadata !DIExpression()), !dbg !2360
  %7 = load i64, i64* %2, align 8, !dbg !2361, !tbaa !1832
  %8 = add i64 39, %7, !dbg !2362
  store i64 %8, i64* %3, align 8, !dbg !2360, !tbaa !1832
  %9 = load i64, i64* %3, align 8, !dbg !2363, !tbaa !1832
  %10 = load i64, i64* %2, align 8, !dbg !2365, !tbaa !1832
  %11 = icmp ule i64 %9, %10, !dbg !2366
  br i1 %11, label %12, label %13, !dbg !2367

12:                                               ; preds = %1
  call void @"?_Throw_bad_array_new_length@std@@YAXXZ"() #18, !dbg !2368
  unreachable, !dbg !2368

13:                                               ; preds = %1
  %14 = bitcast i64* %4 to i8*, !dbg !2370
  call void @llvm.lifetime.start.p0i8(i64 8, i8* %14) #16, !dbg !2370
  call void @llvm.dbg.declare(metadata i64* %4, metadata !2352, metadata !DIExpression()), !dbg !2371
  %15 = load i64, i64* %3, align 8, !dbg !2372, !tbaa !1832
  %16 = call i8* @"?_Allocate@_Default_allocate_traits@std@@SAPEAX_K@Z"(i64 %15), !dbg !2373, !heapallocsite !197
  %17 = ptrtoint i8* %16 to i64, !dbg !2374
  store i64 %17, i64* %4, align 8, !dbg !2371, !tbaa !1832
  br label %18, !dbg !2375

18:                                               ; preds = %13
  %19 = load i64, i64* %4, align 8, !dbg !2376, !tbaa !1832
  %20 = icmp ne i64 %19, 0, !dbg !2376
  br i1 %20, label %21, label %22, !dbg !2379

21:                                               ; preds = %18
  br label %26, !dbg !2380

22:                                               ; preds = %18
  br label %23, !dbg !2382

23:                                               ; preds = %22
  call void @_invalid_parameter_noinfo_noreturn() #18, !dbg !2384
  unreachable, !dbg !2384

24:                                               ; No predecessors!
  br label %25, !dbg !2384

25:                                               ; preds = %24
  br label %26

26:                                               ; preds = %25, %21
  br label %27, !dbg !2379

27:                                               ; preds = %26
  br label %28, !dbg !2379

28:                                               ; preds = %27
  %29 = bitcast i8** %5 to i8*, !dbg !2386
  call void @llvm.lifetime.start.p0i8(i64 8, i8* %29) #16, !dbg !2386
  call void @llvm.dbg.declare(metadata i8** %5, metadata !2354, metadata !DIExpression()), !dbg !2387
  %30 = load i64, i64* %4, align 8, !dbg !2388, !tbaa !1832
  %31 = add i64 %30, 39, !dbg !2389
  %32 = and i64 %31, -32, !dbg !2390
  %33 = inttoptr i64 %32 to i8*, !dbg !2391
  store i8* %33, i8** %5, align 8, !dbg !2387, !tbaa !1675
  %34 = load i64, i64* %4, align 8, !dbg !2392, !tbaa !1832
  %35 = load i8*, i8** %5, align 8, !dbg !2393, !tbaa !1675
  %36 = bitcast i8* %35 to i64*, !dbg !2394
  %37 = getelementptr inbounds i64, i64* %36, i64 -1, !dbg !2394
  store i64 %34, i64* %37, align 8, !dbg !2395, !tbaa !1832
  %38 = load i8*, i8** %5, align 8, !dbg !2396, !tbaa !1675
  %39 = bitcast i8** %5 to i8*, !dbg !2397
  call void @llvm.lifetime.end.p0i8(i64 8, i8* %39) #16, !dbg !2397
  %40 = bitcast i64* %4 to i8*, !dbg !2397
  call void @llvm.lifetime.end.p0i8(i64 8, i8* %40) #16, !dbg !2397
  %41 = bitcast i64* %3 to i8*, !dbg !2397
  call void @llvm.lifetime.end.p0i8(i64 8, i8* %41) #16, !dbg !2397
  ret i8* %38, !dbg !2398
}

; Function Attrs: uwtable mustprogress
define linkonce_odr dso_local i8* @"?_Allocate@_Default_allocate_traits@std@@SAPEAX_K@Z"(i64 %0) #0 comdat align 2 !dbg !2399 {
  %2 = alloca i64, align 8
  store i64 %0, i64* %2, align 8, !tbaa !1832
  call void @llvm.dbg.declare(metadata i64* %2, metadata !2401, metadata !DIExpression()), !dbg !2402
  %3 = load i64, i64* %2, align 8, !dbg !2403, !tbaa !1832
  %4 = call noalias nonnull i8* @"??2@YAPEAX_K@Z"(i64 %3) #19, !dbg !2404, !heapallocsite !197
  ret i8* %4, !dbg !2405
}

; Function Attrs: inlinehint noreturn uwtable mustprogress
define linkonce_odr dso_local void @"?_Throw_bad_array_new_length@std@@YAXXZ"() #8 comdat !dbg !2406 {
  %1 = alloca %"class.std::bad_array_new_length", align 8
  %2 = call %"class.std::bad_array_new_length"* @"??0bad_array_new_length@std@@QEAA@XZ"(%"class.std::bad_array_new_length"* nonnull dereferenceable(24) %1) #16, !dbg !2407
  %3 = bitcast %"class.std::bad_array_new_length"* %1 to i8*, !dbg !2407
  call void @_CxxThrowException(i8* %3, %eh.ThrowInfo* @"_TI3?AVbad_array_new_length@std@@") #18, !dbg !2407
  unreachable, !dbg !2407
}

; Function Attrs: noreturn
declare dso_local void @_invalid_parameter_noinfo_noreturn() #9

; Function Attrs: nounwind uwtable
define linkonce_odr dso_local %"class.std::bad_array_new_length"* @"??0bad_array_new_length@std@@QEAA@XZ"(%"class.std::bad_array_new_length"* nonnull returned dereferenceable(24) %0) unnamed_addr #4 comdat align 2 !dbg !2408 {
  %2 = alloca %"class.std::bad_array_new_length"*, align 8
  store %"class.std::bad_array_new_length"* %0, %"class.std::bad_array_new_length"** %2, align 8, !tbaa !1675
  call void @llvm.dbg.declare(metadata %"class.std::bad_array_new_length"** %2, metadata !2462, metadata !DIExpression()), !dbg !2464
  %3 = load %"class.std::bad_array_new_length"*, %"class.std::bad_array_new_length"** %2, align 8
  %4 = bitcast %"class.std::bad_array_new_length"* %3 to %"class.std::bad_alloc"*, !dbg !2465
  %5 = call %"class.std::bad_alloc"* @"??0bad_alloc@std@@AEAA@QEBD@Z"(%"class.std::bad_alloc"* nonnull dereferenceable(24) %4, i8* getelementptr inbounds ([21 x i8], [21 x i8]* @"??_C@_0BF@KINCDENJ@bad?5array?5new?5length?$AA@", i64 0, i64 0)) #16, !dbg !2466
  %6 = bitcast %"class.std::bad_array_new_length"* %3 to i32 (...)***, !dbg !2465
  store i32 (...)** bitcast (i8** @"??_7bad_array_new_length@std@@6B@" to i32 (...)**), i32 (...)*** %6, align 8, !dbg !2465, !tbaa !2467
  ret %"class.std::bad_array_new_length"* %3, !dbg !2469
}

; Function Attrs: inlinehint nounwind uwtable
define linkonce_odr dso_local %"class.std::bad_array_new_length"* @"??0bad_array_new_length@std@@QEAA@AEBV01@@Z"(%"class.std::bad_array_new_length"* nonnull returned dereferenceable(24) %0, %"class.std::bad_array_new_length"* nonnull align 8 dereferenceable(24) %1) unnamed_addr #6 comdat align 2 !dbg !2470 {
  %3 = alloca %"class.std::bad_array_new_length"*, align 8
  %4 = alloca %"class.std::bad_array_new_length"*, align 8
  store %"class.std::bad_array_new_length"* %1, %"class.std::bad_array_new_length"** %3, align 8, !tbaa !1675
  call void @llvm.dbg.declare(metadata %"class.std::bad_array_new_length"** %3, metadata !2477, metadata !DIExpression()), !dbg !2479
  store %"class.std::bad_array_new_length"* %0, %"class.std::bad_array_new_length"** %4, align 8, !tbaa !1675
  call void @llvm.dbg.declare(metadata %"class.std::bad_array_new_length"** %4, metadata !2478, metadata !DIExpression()), !dbg !2479
  %5 = load %"class.std::bad_array_new_length"*, %"class.std::bad_array_new_length"** %4, align 8
  %6 = bitcast %"class.std::bad_array_new_length"* %5 to %"class.std::bad_alloc"*, !dbg !2480
  %7 = load %"class.std::bad_array_new_length"*, %"class.std::bad_array_new_length"** %3, align 8, !dbg !2480, !tbaa !1675
  %8 = bitcast %"class.std::bad_array_new_length"* %7 to %"class.std::bad_alloc"*, !dbg !2480
  %9 = call %"class.std::bad_alloc"* @"??0bad_alloc@std@@QEAA@AEBV01@@Z"(%"class.std::bad_alloc"* nonnull dereferenceable(24) %6, %"class.std::bad_alloc"* nonnull align 8 dereferenceable(24) %8) #16, !dbg !2480
  %10 = bitcast %"class.std::bad_array_new_length"* %5 to i32 (...)***, !dbg !2480
  store i32 (...)** bitcast (i8** @"??_7bad_array_new_length@std@@6B@" to i32 (...)**), i32 (...)*** %10, align 8, !dbg !2480, !tbaa !2467
  ret %"class.std::bad_array_new_length"* %5, !dbg !2480
}

; Function Attrs: inlinehint nounwind uwtable
define linkonce_odr dso_local %"class.std::bad_alloc"* @"??0bad_alloc@std@@QEAA@AEBV01@@Z"(%"class.std::bad_alloc"* nonnull returned dereferenceable(24) %0, %"class.std::bad_alloc"* nonnull align 8 dereferenceable(24) %1) unnamed_addr #6 comdat align 2 !dbg !2481 {
  %3 = alloca %"class.std::bad_alloc"*, align 8
  %4 = alloca %"class.std::bad_alloc"*, align 8
  store %"class.std::bad_alloc"* %1, %"class.std::bad_alloc"** %3, align 8, !tbaa !1675
  call void @llvm.dbg.declare(metadata %"class.std::bad_alloc"** %3, metadata !2488, metadata !DIExpression()), !dbg !2491
  store %"class.std::bad_alloc"* %0, %"class.std::bad_alloc"** %4, align 8, !tbaa !1675
  call void @llvm.dbg.declare(metadata %"class.std::bad_alloc"** %4, metadata !2489, metadata !DIExpression()), !dbg !2491
  %5 = load %"class.std::bad_alloc"*, %"class.std::bad_alloc"** %4, align 8
  %6 = bitcast %"class.std::bad_alloc"* %5 to %"class.std::exception"*, !dbg !2492
  %7 = load %"class.std::bad_alloc"*, %"class.std::bad_alloc"** %3, align 8, !dbg !2492, !tbaa !1675
  %8 = bitcast %"class.std::bad_alloc"* %7 to %"class.std::exception"*, !dbg !2492
  %9 = call %"class.std::exception"* @"??0exception@std@@QEAA@AEBV01@@Z"(%"class.std::exception"* nonnull dereferenceable(24) %6, %"class.std::exception"* nonnull align 8 dereferenceable(24) %8) #16, !dbg !2492
  %10 = bitcast %"class.std::bad_alloc"* %5 to i32 (...)***, !dbg !2492
  store i32 (...)** bitcast (i8** @"??_7bad_alloc@std@@6B@" to i32 (...)**), i32 (...)*** %10, align 8, !dbg !2492, !tbaa !2467
  ret %"class.std::bad_alloc"* %5, !dbg !2492
}

; Function Attrs: nounwind uwtable
define linkonce_odr dso_local %"class.std::exception"* @"??0exception@std@@QEAA@AEBV01@@Z"(%"class.std::exception"* nonnull returned dereferenceable(24) %0, %"class.std::exception"* nonnull align 8 dereferenceable(24) %1) unnamed_addr #4 comdat align 2 personality i8* bitcast (i32 (...)* @__CxxFrameHandler3 to i8*) !dbg !2493 {
  %3 = alloca %"class.std::exception"*, align 8
  %4 = alloca %"class.std::exception"*, align 8
  store %"class.std::exception"* %1, %"class.std::exception"** %3, align 8, !tbaa !1675
  call void @llvm.dbg.declare(metadata %"class.std::exception"** %3, metadata !2495, metadata !DIExpression()), !dbg !2498
  store %"class.std::exception"* %0, %"class.std::exception"** %4, align 8, !tbaa !1675
  call void @llvm.dbg.declare(metadata %"class.std::exception"** %4, metadata !2496, metadata !DIExpression()), !dbg !2499
  %5 = load %"class.std::exception"*, %"class.std::exception"** %4, align 8
  %6 = bitcast %"class.std::exception"* %5 to i32 (...)***, !dbg !2500
  store i32 (...)** bitcast (i8** @"??_7exception@std@@6B@" to i32 (...)**), i32 (...)*** %6, align 8, !dbg !2500, !tbaa !2467
  %7 = getelementptr inbounds %"class.std::exception", %"class.std::exception"* %5, i32 0, i32 1, !dbg !2501
  %8 = bitcast %struct.__std_exception_data* %7 to i8*, !dbg !2501
  call void @llvm.memset.p0i8.i64(i8* align 8 %8, i8 0, i64 16, i1 false), !dbg !2501
  %9 = getelementptr inbounds %"class.std::exception", %"class.std::exception"* %5, i32 0, i32 1, !dbg !2502
  %10 = load %"class.std::exception"*, %"class.std::exception"** %3, align 8, !dbg !2504, !tbaa !1675
  %11 = getelementptr inbounds %"class.std::exception", %"class.std::exception"* %10, i32 0, i32 1, !dbg !2505
  invoke void @__std_exception_copy(%struct.__std_exception_data* %11, %struct.__std_exception_data* %9)
          to label %12 unwind label %13, !dbg !2506

12:                                               ; preds = %2
  ret %"class.std::exception"* %5, !dbg !2507

13:                                               ; preds = %2
  %14 = cleanuppad within none [], !dbg !2506
  call void @__std_terminate() #17 [ "funclet"(token %14) ], !dbg !2506
  unreachable, !dbg !2506
}

; Function Attrs: nounwind uwtable
define linkonce_odr dso_local void @"??1exception@std@@UEAA@XZ"(%"class.std::exception"* nonnull dereferenceable(24) %0) unnamed_addr #4 comdat align 2 personality i8* bitcast (i32 (...)* @__CxxFrameHandler3 to i8*) !dbg !2508 {
  %2 = alloca %"class.std::exception"*, align 8
  store %"class.std::exception"* %0, %"class.std::exception"** %2, align 8, !tbaa !1675
  call void @llvm.dbg.declare(metadata %"class.std::exception"** %2, metadata !2510, metadata !DIExpression()), !dbg !2511
  %3 = load %"class.std::exception"*, %"class.std::exception"** %2, align 8
  %4 = bitcast %"class.std::exception"* %3 to i32 (...)***, !dbg !2512
  store i32 (...)** bitcast (i8** @"??_7exception@std@@6B@" to i32 (...)**), i32 (...)*** %4, align 8, !dbg !2512, !tbaa !2467
  %5 = getelementptr inbounds %"class.std::exception", %"class.std::exception"* %3, i32 0, i32 1, !dbg !2513
  invoke void @__std_exception_destroy(%struct.__std_exception_data* %5)
          to label %6 unwind label %7, !dbg !2515

6:                                                ; preds = %1
  ret void, !dbg !2516

7:                                                ; preds = %1
  %8 = cleanuppad within none [], !dbg !2515
  call void @__std_terminate() #17 [ "funclet"(token %8) ], !dbg !2515
  unreachable, !dbg !2515
}

declare dso_local void @_CxxThrowException(i8*, %eh.ThrowInfo*)

; Function Attrs: nounwind uwtable
define linkonce_odr dso_local %"class.std::bad_alloc"* @"??0bad_alloc@std@@AEAA@QEBD@Z"(%"class.std::bad_alloc"* nonnull returned dereferenceable(24) %0, i8* %1) unnamed_addr #4 comdat align 2 !dbg !2517 {
  %3 = alloca i8*, align 8
  %4 = alloca %"class.std::bad_alloc"*, align 8
  store i8* %1, i8** %3, align 8, !tbaa !1675
  call void @llvm.dbg.declare(metadata i8** %3, metadata !2519, metadata !DIExpression()), !dbg !2521
  store %"class.std::bad_alloc"* %0, %"class.std::bad_alloc"** %4, align 8, !tbaa !1675
  call void @llvm.dbg.declare(metadata %"class.std::bad_alloc"** %4, metadata !2520, metadata !DIExpression()), !dbg !2522
  %5 = load %"class.std::bad_alloc"*, %"class.std::bad_alloc"** %4, align 8
  %6 = bitcast %"class.std::bad_alloc"* %5 to %"class.std::exception"*, !dbg !2523
  %7 = load i8*, i8** %3, align 8, !dbg !2524, !tbaa !1675
  %8 = call %"class.std::exception"* @"??0exception@std@@QEAA@QEBDH@Z"(%"class.std::exception"* nonnull dereferenceable(24) %6, i8* %7, i32 1) #16, !dbg !2525
  %9 = bitcast %"class.std::bad_alloc"* %5 to i32 (...)***, !dbg !2523
  store i32 (...)** bitcast (i8** @"??_7bad_alloc@std@@6B@" to i32 (...)**), i32 (...)*** %9, align 8, !dbg !2523, !tbaa !2467
  ret %"class.std::bad_alloc"* %5, !dbg !2526
}

; Function Attrs: inlinehint nounwind uwtable
define linkonce_odr dso_local i8* @"??_Gbad_array_new_length@std@@UEAAPEAXI@Z"(%"class.std::bad_array_new_length"* nonnull dereferenceable(24) %0, i32 %1) unnamed_addr #6 comdat align 2 !dbg !2527 {
  %3 = alloca i8*, align 8
  %4 = alloca i32, align 4
  %5 = alloca %"class.std::bad_array_new_length"*, align 8
  store i32 %1, i32* %4, align 4, !tbaa !1699
  call void @llvm.dbg.declare(metadata i32* %4, metadata !2530, metadata !DIExpression()), !dbg !2532
  store %"class.std::bad_array_new_length"* %0, %"class.std::bad_array_new_length"** %5, align 8, !tbaa !1675
  call void @llvm.dbg.declare(metadata %"class.std::bad_array_new_length"** %5, metadata !2531, metadata !DIExpression()), !dbg !2532
  %6 = load %"class.std::bad_array_new_length"*, %"class.std::bad_array_new_length"** %5, align 8
  %7 = bitcast %"class.std::bad_array_new_length"* %6 to i8*
  store i8* %7, i8** %3, align 8
  %8 = load i32, i32* %4, align 4
  call void bitcast (void (%"class.std::exception"*)* @"??1exception@std@@UEAA@XZ" to void (%"class.std::bad_array_new_length"*)*)(%"class.std::bad_array_new_length"* nonnull dereferenceable(24) %6) #16, !dbg !2533
  %9 = icmp eq i32 %8, 0, !dbg !2533
  br i1 %9, label %12, label %10, !dbg !2533

10:                                               ; preds = %2
  %11 = bitcast %"class.std::bad_array_new_length"* %6 to i8*, !dbg !2533
  call void @"??3@YAXPEAX@Z"(i8* %11) #20, !dbg !2533
  br label %12, !dbg !2533

12:                                               ; preds = %10, %2
  %13 = load i8*, i8** %3, align 8, !dbg !2533
  ret i8* %13, !dbg !2533
}

; Function Attrs: nounwind uwtable mustprogress
define linkonce_odr dso_local i8* @"?what@exception@std@@UEBAPEBDXZ"(%"class.std::exception"* nonnull dereferenceable(24) %0) unnamed_addr #2 comdat align 2 !dbg !2534 {
  %2 = alloca %"class.std::exception"*, align 8
  store %"class.std::exception"* %0, %"class.std::exception"** %2, align 8, !tbaa !1675
  call void @llvm.dbg.declare(metadata %"class.std::exception"** %2, metadata !2536, metadata !DIExpression()), !dbg !2538
  %3 = load %"class.std::exception"*, %"class.std::exception"** %2, align 8
  %4 = getelementptr inbounds %"class.std::exception", %"class.std::exception"* %3, i32 0, i32 1, !dbg !2539
  %5 = getelementptr inbounds %struct.__std_exception_data, %struct.__std_exception_data* %4, i32 0, i32 0, !dbg !2540
  %6 = load i8*, i8** %5, align 8, !dbg !2540, !tbaa !2541
  %7 = icmp ne i8* %6, null, !dbg !2539
  br i1 %7, label %8, label %12, !dbg !2539

8:                                                ; preds = %1
  %9 = getelementptr inbounds %"class.std::exception", %"class.std::exception"* %3, i32 0, i32 1, !dbg !2544
  %10 = getelementptr inbounds %struct.__std_exception_data, %struct.__std_exception_data* %9, i32 0, i32 0, !dbg !2545
  %11 = load i8*, i8** %10, align 8, !dbg !2545, !tbaa !2541
  br label %13, !dbg !2539

12:                                               ; preds = %1
  br label %13, !dbg !2539

13:                                               ; preds = %12, %8
  %14 = phi i8* [ %11, %8 ], [ getelementptr inbounds ([18 x i8], [18 x i8]* @"??_C@_0BC@EOODALEL@Unknown?5exception?$AA@", i64 0, i64 0), %12 ], !dbg !2539
  ret i8* %14, !dbg !2546
}

; Function Attrs: nounwind uwtable
define linkonce_odr dso_local %"class.std::exception"* @"??0exception@std@@QEAA@QEBDH@Z"(%"class.std::exception"* nonnull returned dereferenceable(24) %0, i8* %1, i32 %2) unnamed_addr #4 comdat align 2 !dbg !2547 {
  %4 = alloca i32, align 4
  %5 = alloca i8*, align 8
  %6 = alloca %"class.std::exception"*, align 8
  store i32 %2, i32* %4, align 4, !tbaa !1699
  call void @llvm.dbg.declare(metadata i32* %4, metadata !2549, metadata !DIExpression()), !dbg !2552
  store i8* %1, i8** %5, align 8, !tbaa !1675
  call void @llvm.dbg.declare(metadata i8** %5, metadata !2550, metadata !DIExpression()), !dbg !2553
  store %"class.std::exception"* %0, %"class.std::exception"** %6, align 8, !tbaa !1675
  call void @llvm.dbg.declare(metadata %"class.std::exception"** %6, metadata !2551, metadata !DIExpression()), !dbg !2554
  %7 = load %"class.std::exception"*, %"class.std::exception"** %6, align 8
  %8 = bitcast %"class.std::exception"* %7 to i32 (...)***, !dbg !2555
  store i32 (...)** bitcast (i8** @"??_7exception@std@@6B@" to i32 (...)**), i32 (...)*** %8, align 8, !dbg !2555, !tbaa !2467
  %9 = getelementptr inbounds %"class.std::exception", %"class.std::exception"* %7, i32 0, i32 1, !dbg !2556
  %10 = bitcast %struct.__std_exception_data* %9 to i8*, !dbg !2556
  call void @llvm.memset.p0i8.i64(i8* align 8 %10, i8 0, i64 16, i1 false), !dbg !2556
  %11 = load i8*, i8** %5, align 8, !dbg !2557, !tbaa !1675
  %12 = getelementptr inbounds %"class.std::exception", %"class.std::exception"* %7, i32 0, i32 1, !dbg !2559
  %13 = getelementptr inbounds %struct.__std_exception_data, %struct.__std_exception_data* %12, i32 0, i32 0, !dbg !2560
  store i8* %11, i8** %13, align 8, !dbg !2561, !tbaa !2541
  ret %"class.std::exception"* %7, !dbg !2562
}

; Function Attrs: inlinehint nounwind uwtable
define linkonce_odr dso_local i8* @"??_Gbad_alloc@std@@UEAAPEAXI@Z"(%"class.std::bad_alloc"* nonnull dereferenceable(24) %0, i32 %1) unnamed_addr #6 comdat align 2 !dbg !2563 {
  %3 = alloca i8*, align 8
  %4 = alloca i32, align 4
  %5 = alloca %"class.std::bad_alloc"*, align 8
  store i32 %1, i32* %4, align 4, !tbaa !1699
  call void @llvm.dbg.declare(metadata i32* %4, metadata !2566, metadata !DIExpression()), !dbg !2568
  store %"class.std::bad_alloc"* %0, %"class.std::bad_alloc"** %5, align 8, !tbaa !1675
  call void @llvm.dbg.declare(metadata %"class.std::bad_alloc"** %5, metadata !2567, metadata !DIExpression()), !dbg !2568
  %6 = load %"class.std::bad_alloc"*, %"class.std::bad_alloc"** %5, align 8
  %7 = bitcast %"class.std::bad_alloc"* %6 to i8*
  store i8* %7, i8** %3, align 8
  %8 = load i32, i32* %4, align 4
  call void bitcast (void (%"class.std::exception"*)* @"??1exception@std@@UEAA@XZ" to void (%"class.std::bad_alloc"*)*)(%"class.std::bad_alloc"* nonnull dereferenceable(24) %6) #16, !dbg !2569
  %9 = icmp eq i32 %8, 0, !dbg !2569
  br i1 %9, label %12, label %10, !dbg !2569

10:                                               ; preds = %2
  %11 = bitcast %"class.std::bad_alloc"* %6 to i8*, !dbg !2569
  call void @"??3@YAXPEAX@Z"(i8* %11) #20, !dbg !2569
  br label %12, !dbg !2569

12:                                               ; preds = %10, %2
  %13 = load i8*, i8** %3, align 8, !dbg !2569
  ret i8* %13, !dbg !2569
}

; Function Attrs: argmemonly nofree nosync nounwind willreturn writeonly
declare void @llvm.memset.p0i8.i64(i8* nocapture writeonly, i8, i64, i1 immarg) #10

; Function Attrs: nounwind uwtable
define linkonce_odr dso_local i8* @"??_Gexception@std@@UEAAPEAXI@Z"(%"class.std::exception"* nonnull dereferenceable(24) %0, i32 %1) unnamed_addr #4 comdat align 2 !dbg !2570 {
  %3 = alloca i8*, align 8
  %4 = alloca i32, align 4
  %5 = alloca %"class.std::exception"*, align 8
  store i32 %1, i32* %4, align 4, !tbaa !1699
  call void @llvm.dbg.declare(metadata i32* %4, metadata !2572, metadata !DIExpression()), !dbg !2574
  store %"class.std::exception"* %0, %"class.std::exception"** %5, align 8, !tbaa !1675
  call void @llvm.dbg.declare(metadata %"class.std::exception"** %5, metadata !2573, metadata !DIExpression()), !dbg !2574
  %6 = load %"class.std::exception"*, %"class.std::exception"** %5, align 8
  %7 = bitcast %"class.std::exception"* %6 to i8*
  store i8* %7, i8** %3, align 8
  %8 = load i32, i32* %4, align 4
  call void @"??1exception@std@@UEAA@XZ"(%"class.std::exception"* nonnull dereferenceable(24) %6) #16, !dbg !2575
  %9 = icmp eq i32 %8, 0, !dbg !2575
  br i1 %9, label %12, label %10, !dbg !2575

10:                                               ; preds = %2
  %11 = bitcast %"class.std::exception"* %6 to i8*, !dbg !2575
  call void @"??3@YAXPEAX@Z"(i8* %11) #20, !dbg !2575
  br label %12, !dbg !2575

12:                                               ; preds = %10, %2
  %13 = load i8*, i8** %3, align 8, !dbg !2576
  ret i8* %13, !dbg !2576
}

; Function Attrs: nobuiltin nounwind
declare dso_local void @"??3@YAXPEAX@Z"(i8*) #11

declare dso_local void @__std_exception_destroy(%struct.__std_exception_data*) #12

declare dso_local void @__std_terminate()

declare dso_local void @__std_exception_copy(%struct.__std_exception_data*, %struct.__std_exception_data*) #12

; Function Attrs: nobuiltin allocsize(0)
declare dso_local nonnull i8* @"??2@YAPEAX_K@Z"(i64) #13

; Function Attrs: inlinehint nounwind uwtable mustprogress
define linkonce_odr dso_local i8* @"?copy@?$_Char_traits@DH@std@@SAPEADQEADQEBD_K@Z"(i8* %0, i8* %1, i64 %2) #7 comdat align 2 !dbg !2577 {
  %4 = alloca i64, align 8
  %5 = alloca i8*, align 8
  %6 = alloca i8*, align 8
  store i64 %2, i64* %4, align 8, !tbaa !1832
  call void @llvm.dbg.declare(metadata i64* %4, metadata !2579, metadata !DIExpression()), !dbg !2582
  store i8* %1, i8** %5, align 8, !tbaa !1675
  call void @llvm.dbg.declare(metadata i8** %5, metadata !2580, metadata !DIExpression()), !dbg !2583
  store i8* %0, i8** %6, align 8, !tbaa !1675
  call void @llvm.dbg.declare(metadata i8** %6, metadata !2581, metadata !DIExpression()), !dbg !2584
  %7 = load i8*, i8** %6, align 8, !dbg !2585, !tbaa !1675
  %8 = load i8*, i8** %5, align 8, !dbg !2586, !tbaa !1675
  %9 = load i64, i64* %4, align 8, !dbg !2587, !tbaa !1832
  %10 = mul i64 %9, 1, !dbg !2588
  call void @llvm.memcpy.p0i8.p0i8.i64(i8* align 1 %7, i8* align 1 %8, i64 %10, i1 false), !dbg !2589
  %11 = load i8*, i8** %6, align 8, !dbg !2590, !tbaa !1675
  ret i8* %11, !dbg !2591
}

; Function Attrs: argmemonly nofree nosync nounwind willreturn
declare void @llvm.memcpy.p0i8.p0i8.i64(i8* noalias nocapture writeonly, i8* noalias nocapture readonly, i64, i1 immarg) #5

; Function Attrs: nounwind uwtable mustprogress
define linkonce_odr dso_local void @"??$_Deallocate@$0BA@$0A@@std@@YAXPEAX_K@Z"(i8* %0, i64 %1) #2 comdat personality i8* bitcast (i32 (...)* @__CxxFrameHandler3 to i8*) !dbg !2592 {
  %3 = alloca i64, align 8
  %4 = alloca i8*, align 8
  store i64 %1, i64* %3, align 8, !tbaa !1832
  call void @llvm.dbg.declare(metadata i64* %3, metadata !2596, metadata !DIExpression()), !dbg !2599
  store i8* %0, i8** %4, align 8, !tbaa !1675
  call void @llvm.dbg.declare(metadata i8** %4, metadata !2597, metadata !DIExpression()), !dbg !2600
  %5 = load i64, i64* %3, align 8, !dbg !2601, !tbaa !1832
  %6 = icmp uge i64 %5, 4096, !dbg !2603
  br i1 %6, label %7, label %9, !dbg !2604

7:                                                ; preds = %2
  invoke void @"?_Adjust_manually_vector_aligned@std@@YAXAEAPEAXAEA_K@Z"(i8** nonnull align 8 dereferenceable(8) %4, i64* nonnull align 8 dereferenceable(8) %3)
          to label %8 unwind label %12, !dbg !2605

8:                                                ; preds = %7
  br label %9, !dbg !2607

9:                                                ; preds = %8, %2
  %10 = load i64, i64* %3, align 8, !dbg !2608, !tbaa !1832
  %11 = load i8*, i8** %4, align 8, !dbg !2609, !tbaa !1675
  call void @"??3@YAXPEAX_K@Z"(i8* %11, i64 %10) #16, !dbg !2610
  ret void, !dbg !2611

12:                                               ; preds = %7
  %13 = cleanuppad within none [], !dbg !2605
  call void @__std_terminate() #17 [ "funclet"(token %13) ], !dbg !2605
  unreachable, !dbg !2605
}

; Function Attrs: inlinehint uwtable mustprogress
define linkonce_odr dso_local void @"?_Adjust_manually_vector_aligned@std@@YAXAEAPEAXAEA_K@Z"(i8** nonnull align 8 dereferenceable(8) %0, i64* nonnull align 8 dereferenceable(8) %1) #14 comdat !dbg !2612 {
  %3 = alloca i64*, align 8
  %4 = alloca i8**, align 8
  %5 = alloca i64*, align 8
  %6 = alloca i64, align 8
  %7 = alloca i64, align 8
  %8 = alloca i64, align 8
  store i64* %1, i64** %3, align 8, !tbaa !1675
  call void @llvm.dbg.declare(metadata i64** %3, metadata !2618, metadata !DIExpression()), !dbg !2626
  store i8** %0, i8*** %4, align 8, !tbaa !1675
  call void @llvm.dbg.declare(metadata i8*** %4, metadata !2619, metadata !DIExpression()), !dbg !2627
  %9 = load i64*, i64** %3, align 8, !dbg !2628, !tbaa !1675
  %10 = load i64, i64* %9, align 8, !dbg !2629, !tbaa !1832
  %11 = add i64 %10, 39, !dbg !2629
  store i64 %11, i64* %9, align 8, !dbg !2629, !tbaa !1832
  %12 = bitcast i64** %5 to i8*, !dbg !2630
  call void @llvm.lifetime.start.p0i8(i64 8, i8* %12) #16, !dbg !2630
  call void @llvm.dbg.declare(metadata i64** %5, metadata !2620, metadata !DIExpression()), !dbg !2631
  %13 = load i8**, i8*** %4, align 8, !dbg !2632, !tbaa !1675
  %14 = load i8*, i8** %13, align 8, !dbg !2632, !tbaa !1675
  %15 = bitcast i8* %14 to i64*, !dbg !2633
  store i64* %15, i64** %5, align 8, !dbg !2631, !tbaa !1675
  %16 = bitcast i64* %6 to i8*, !dbg !2634
  call void @llvm.lifetime.start.p0i8(i64 8, i8* %16) #16, !dbg !2634
  call void @llvm.dbg.declare(metadata i64* %6, metadata !2623, metadata !DIExpression()), !dbg !2635
  %17 = load i64*, i64** %5, align 8, !dbg !2636, !tbaa !1675
  %18 = getelementptr inbounds i64, i64* %17, i64 -1, !dbg !2636
  %19 = load i64, i64* %18, align 8, !dbg !2636, !tbaa !1832
  store i64 %19, i64* %6, align 8, !dbg !2635, !tbaa !1832
  %20 = bitcast i64* %7 to i8*, !dbg !2637
  call void @llvm.lifetime.start.p0i8(i64 8, i8* %20) #16, !dbg !2637
  call void @llvm.dbg.declare(metadata i64* %7, metadata !2624, metadata !DIExpression()), !dbg !2638
  store i64 8, i64* %7, align 8, !dbg !2638, !tbaa !1832
  %21 = bitcast i64* %8 to i8*, !dbg !2639
  call void @llvm.lifetime.start.p0i8(i64 8, i8* %21) #16, !dbg !2639
  call void @llvm.dbg.declare(metadata i64* %8, metadata !2625, metadata !DIExpression()), !dbg !2640
  %22 = load i8**, i8*** %4, align 8, !dbg !2641, !tbaa !1675
  %23 = load i8*, i8** %22, align 8, !dbg !2641, !tbaa !1675
  %24 = ptrtoint i8* %23 to i64, !dbg !2642
  %25 = load i64, i64* %6, align 8, !dbg !2643, !tbaa !1832
  %26 = sub i64 %24, %25, !dbg !2644
  store i64 %26, i64* %8, align 8, !dbg !2640, !tbaa !1832
  br label %27, !dbg !2645

27:                                               ; preds = %2
  %28 = load i64, i64* %8, align 8, !dbg !2646, !tbaa !1832
  %29 = icmp uge i64 %28, 8, !dbg !2646
  br i1 %29, label %30, label %34, !dbg !2646

30:                                               ; preds = %27
  %31 = load i64, i64* %8, align 8, !dbg !2646, !tbaa !1832
  %32 = icmp ule i64 %31, 39, !dbg !2646
  br i1 %32, label %33, label %34, !dbg !2649

33:                                               ; preds = %30
  br label %38, !dbg !2650

34:                                               ; preds = %30, %27
  br label %35, !dbg !2652

35:                                               ; preds = %34
  call void @_invalid_parameter_noinfo_noreturn() #18, !dbg !2654
  unreachable, !dbg !2654

36:                                               ; No predecessors!
  br label %37, !dbg !2654

37:                                               ; preds = %36
  br label %38

38:                                               ; preds = %37, %33
  br label %39, !dbg !2649

39:                                               ; preds = %38
  br label %40, !dbg !2649

40:                                               ; preds = %39
  %41 = load i64, i64* %6, align 8, !dbg !2656, !tbaa !1832
  %42 = inttoptr i64 %41 to i8*, !dbg !2657
  %43 = load i8**, i8*** %4, align 8, !dbg !2658, !tbaa !1675
  store i8* %42, i8** %43, align 8, !dbg !2659, !tbaa !1675
  %44 = bitcast i64* %8 to i8*, !dbg !2660
  call void @llvm.lifetime.end.p0i8(i64 8, i8* %44) #16, !dbg !2660
  %45 = bitcast i64* %7 to i8*, !dbg !2660
  call void @llvm.lifetime.end.p0i8(i64 8, i8* %45) #16, !dbg !2660
  %46 = bitcast i64* %6 to i8*, !dbg !2660
  call void @llvm.lifetime.end.p0i8(i64 8, i8* %46) #16, !dbg !2660
  %47 = bitcast i64** %5 to i8*, !dbg !2660
  call void @llvm.lifetime.end.p0i8(i64 8, i8* %47) #16, !dbg !2660
  ret void, !dbg !2660
}

; Function Attrs: nounwind
declare dso_local void @"??3@YAXPEAX_K@Z"(i8*, i64) #15

; Function Attrs: nounwind uwtable mustprogress
define linkonce_odr dso_local i8* @"??$_Voidify_iter@PEAPEAD@std@@YAPEAXPEAPEAD@Z"(i8** %0) #2 comdat !dbg !2661 {
  %2 = alloca i8**, align 8
  store i8** %0, i8*** %2, align 8, !tbaa !1675
  call void @llvm.dbg.declare(metadata i8*** %2, metadata !2665, metadata !DIExpression()), !dbg !2668
  %3 = load i8**, i8*** %2, align 8, !dbg !2669, !tbaa !1675
  %4 = bitcast i8** %3 to i8*, !dbg !2669
  ret i8* %4, !dbg !2672
}

; Function Attrs: nounwind uwtable mustprogress
define linkonce_odr dso_local i8** @"??$addressof@PEAD@std@@YAPEAPEADAEAPEAD@Z"(i8** nonnull align 8 dereferenceable(8) %0) #2 comdat !dbg !2673 {
  %2 = alloca i8**, align 8
  store i8** %0, i8*** %2, align 8, !tbaa !1675
  call void @llvm.dbg.declare(metadata i8*** %2, metadata !2677, metadata !DIExpression()), !dbg !2679
  %3 = load i8**, i8*** %2, align 8, !dbg !2680, !tbaa !1675
  ret i8** %3, !dbg !2681
}

; Function Attrs: nounwind uwtable mustprogress
define linkonce_odr dso_local nonnull align 8 dereferenceable(8) i8** @"??$forward@AEBQEAD@std@@YAAEBQEADAEBQEAD@Z"(i8** nonnull align 8 dereferenceable(8) %0) #2 comdat !dbg !2682 {
  %2 = alloca i8**, align 8
  store i8** %0, i8*** %2, align 8, !tbaa !1675
  call void @llvm.dbg.declare(metadata i8*** %2, metadata !2694, metadata !DIExpression()), !dbg !2695
  %3 = load i8**, i8*** %2, align 8, !dbg !2696, !tbaa !1675
  ret i8** %3, !dbg !2697
}

declare dso_local i64 @strlen(i8*) #12

; Function Attrs: inlinehint nounwind uwtable
define linkonce_odr dso_local void @"??1?$_String_val@U?$_Simple_types@D@std@@@std@@QEAA@XZ"(%"class.std::_String_val"* nonnull dereferenceable(32) %0) unnamed_addr #6 comdat align 2 !dbg !2698 {
  %2 = alloca %"class.std::_String_val"*, align 8
  store %"class.std::_String_val"* %0, %"class.std::_String_val"** %2, align 8, !tbaa !1675
  call void @llvm.dbg.declare(metadata %"class.std::_String_val"** %2, metadata !2701, metadata !DIExpression()), !dbg !2702
  %3 = load %"class.std::_String_val"*, %"class.std::_String_val"** %2, align 8
  %4 = getelementptr inbounds %"class.std::_String_val", %"class.std::_String_val"* %3, i32 0, i32 0, !dbg !2703
  call void @"??1_Bxty@?$_String_val@U?$_Simple_types@D@std@@@std@@QEAA@XZ"(%"union.std::_String_val<std::_Simple_types<char>>::_Bxty"* nonnull dereferenceable(16) %4) #16, !dbg !2703
  ret void, !dbg !2705
}

; Function Attrs: nounwind uwtable
define linkonce_odr dso_local void @"??1_Bxty@?$_String_val@U?$_Simple_types@D@std@@@std@@QEAA@XZ"(%"union.std::_String_val<std::_Simple_types<char>>::_Bxty"* nonnull dereferenceable(16) %0) unnamed_addr #4 comdat align 2 !dbg !2706 {
  %2 = alloca %"union.std::_String_val<std::_Simple_types<char>>::_Bxty"*, align 8
  store %"union.std::_String_val<std::_Simple_types<char>>::_Bxty"* %0, %"union.std::_String_val<std::_Simple_types<char>>::_Bxty"** %2, align 8, !tbaa !1675
  call void @llvm.dbg.declare(metadata %"union.std::_String_val<std::_Simple_types<char>>::_Bxty"** %2, metadata !2708, metadata !DIExpression()), !dbg !2709
  %3 = load %"union.std::_String_val<std::_Simple_types<char>>::_Bxty"*, %"union.std::_String_val<std::_Simple_types<char>>::_Bxty"** %2, align 8
  ret void, !dbg !2710
}

attributes #0 = { uwtable mustprogress "disable-tail-calls"="false" "frame-pointer"="none" "less-precise-fpmad"="false" "min-legal-vector-width"="0" "no-infs-fp-math"="false" "no-jump-tables"="false" "no-nans-fp-math"="false" "no-signed-zeros-fp-math"="false" "no-trapping-math"="true" "stack-protector-buffer-size"="8" "target-cpu"="x86-64" "target-features"="+cx8,+fxsr,+mmx,+sse,+sse2,+x87" "tune-cpu"="generic" "unsafe-fp-math"="false" "use-soft-float"="false" }
attributes #1 = { uwtable "disable-tail-calls"="false" "frame-pointer"="none" "less-precise-fpmad"="false" "min-legal-vector-width"="0" "no-infs-fp-math"="false" "no-jump-tables"="false" "no-nans-fp-math"="false" "no-signed-zeros-fp-math"="false" "no-trapping-math"="true" "stack-protector-buffer-size"="8" "target-cpu"="x86-64" "target-features"="+cx8,+fxsr,+mmx,+sse,+sse2,+x87" "tune-cpu"="generic" "unsafe-fp-math"="false" "use-soft-float"="false" }
attributes #2 = { nounwind uwtable mustprogress "disable-tail-calls"="false" "frame-pointer"="none" "less-precise-fpmad"="false" "min-legal-vector-width"="0" "no-infs-fp-math"="false" "no-jump-tables"="false" "no-nans-fp-math"="false" "no-signed-zeros-fp-math"="false" "no-trapping-math"="true" "stack-protector-buffer-size"="8" "target-cpu"="x86-64" "target-features"="+cx8,+fxsr,+mmx,+sse,+sse2,+x87" "tune-cpu"="generic" "unsafe-fp-math"="false" "use-soft-float"="false" }
attributes #3 = { nofree nosync nounwind readnone speculatable willreturn }
attributes #4 = { nounwind uwtable "disable-tail-calls"="false" "frame-pointer"="none" "less-precise-fpmad"="false" "min-legal-vector-width"="0" "no-infs-fp-math"="false" "no-jump-tables"="false" "no-nans-fp-math"="false" "no-signed-zeros-fp-math"="false" "no-trapping-math"="true" "stack-protector-buffer-size"="8" "target-cpu"="x86-64" "target-features"="+cx8,+fxsr,+mmx,+sse,+sse2,+x87" "tune-cpu"="generic" "unsafe-fp-math"="false" "use-soft-float"="false" }
attributes #5 = { argmemonly nofree nosync nounwind willreturn }
attributes #6 = { inlinehint nounwind uwtable "disable-tail-calls"="false" "frame-pointer"="none" "less-precise-fpmad"="false" "min-legal-vector-width"="0" "no-infs-fp-math"="false" "no-jump-tables"="false" "no-nans-fp-math"="false" "no-signed-zeros-fp-math"="false" "no-trapping-math"="true" "stack-protector-buffer-size"="8" "target-cpu"="x86-64" "target-features"="+cx8,+fxsr,+mmx,+sse,+sse2,+x87" "tune-cpu"="generic" "unsafe-fp-math"="false" "use-soft-float"="false" }
attributes #7 = { inlinehint nounwind uwtable mustprogress "disable-tail-calls"="false" "frame-pointer"="none" "less-precise-fpmad"="false" "min-legal-vector-width"="0" "no-infs-fp-math"="false" "no-jump-tables"="false" "no-nans-fp-math"="false" "no-signed-zeros-fp-math"="false" "no-trapping-math"="true" "stack-protector-buffer-size"="8" "target-cpu"="x86-64" "target-features"="+cx8,+fxsr,+mmx,+sse,+sse2,+x87" "tune-cpu"="generic" "unsafe-fp-math"="false" "use-soft-float"="false" }
attributes #8 = { inlinehint noreturn uwtable mustprogress "disable-tail-calls"="false" "frame-pointer"="none" "less-precise-fpmad"="false" "min-legal-vector-width"="0" "no-infs-fp-math"="false" "no-jump-tables"="false" "no-nans-fp-math"="false" "no-signed-zeros-fp-math"="false" "no-trapping-math"="true" "stack-protector-buffer-size"="8" "target-cpu"="x86-64" "target-features"="+cx8,+fxsr,+mmx,+sse,+sse2,+x87" "tune-cpu"="generic" "unsafe-fp-math"="false" "use-soft-float"="false" }
attributes #9 = { noreturn "disable-tail-calls"="false" "frame-pointer"="none" "less-precise-fpmad"="false" "no-infs-fp-math"="false" "no-nans-fp-math"="false" "no-signed-zeros-fp-math"="false" "no-trapping-math"="true" "stack-protector-buffer-size"="8" "target-cpu"="x86-64" "target-features"="+cx8,+fxsr,+mmx,+sse,+sse2,+x87" "tune-cpu"="generic" "unsafe-fp-math"="false" "use-soft-float"="false" }
attributes #10 = { argmemonly nofree nosync nounwind willreturn writeonly }
attributes #11 = { nobuiltin nounwind "disable-tail-calls"="false" "frame-pointer"="none" "less-precise-fpmad"="false" "no-infs-fp-math"="false" "no-nans-fp-math"="false" "no-signed-zeros-fp-math"="false" "no-trapping-math"="true" "stack-protector-buffer-size"="8" "target-cpu"="x86-64" "target-features"="+cx8,+fxsr,+mmx,+sse,+sse2,+x87" "tune-cpu"="generic" "unsafe-fp-math"="false" "use-soft-float"="false" }
attributes #12 = { "disable-tail-calls"="false" "frame-pointer"="none" "less-precise-fpmad"="false" "no-infs-fp-math"="false" "no-nans-fp-math"="false" "no-signed-zeros-fp-math"="false" "no-trapping-math"="true" "stack-protector-buffer-size"="8" "target-cpu"="x86-64" "target-features"="+cx8,+fxsr,+mmx,+sse,+sse2,+x87" "tune-cpu"="generic" "unsafe-fp-math"="false" "use-soft-float"="false" }
attributes #13 = { nobuiltin allocsize(0) "disable-tail-calls"="false" "frame-pointer"="none" "less-precise-fpmad"="false" "no-infs-fp-math"="false" "no-nans-fp-math"="false" "no-signed-zeros-fp-math"="false" "no-trapping-math"="true" "stack-protector-buffer-size"="8" "target-cpu"="x86-64" "target-features"="+cx8,+fxsr,+mmx,+sse,+sse2,+x87" "tune-cpu"="generic" "unsafe-fp-math"="false" "use-soft-float"="false" }
attributes #14 = { inlinehint uwtable mustprogress "disable-tail-calls"="false" "frame-pointer"="none" "less-precise-fpmad"="false" "min-legal-vector-width"="0" "no-infs-fp-math"="false" "no-jump-tables"="false" "no-nans-fp-math"="false" "no-signed-zeros-fp-math"="false" "no-trapping-math"="true" "stack-protector-buffer-size"="8" "target-cpu"="x86-64" "target-features"="+cx8,+fxsr,+mmx,+sse,+sse2,+x87" "tune-cpu"="generic" "unsafe-fp-math"="false" "use-soft-float"="false" }
attributes #15 = { nounwind "disable-tail-calls"="false" "frame-pointer"="none" "less-precise-fpmad"="false" "no-infs-fp-math"="false" "no-nans-fp-math"="false" "no-signed-zeros-fp-math"="false" "no-trapping-math"="true" "stack-protector-buffer-size"="8" "target-cpu"="x86-64" "target-features"="+cx8,+fxsr,+mmx,+sse,+sse2,+x87" "tune-cpu"="generic" "unsafe-fp-math"="false" "use-soft-float"="false" }
attributes #16 = { nounwind }
attributes #17 = { noreturn nounwind }
attributes #18 = { noreturn }
attributes #19 = { allocsize(0) }
attributes #20 = { builtin nounwind }

!llvm.dbg.cu = !{!0}
!llvm.linker.options = !{!1616, !1617, !1618, !1619, !1620}
!llvm.module.flags = !{!1621, !1622, !1623, !1624}
!llvm.ident = !{!1625}

!0 = distinct !DICompileUnit(language: DW_LANG_C_plus_plus_14, file: !1, producer: "clang version 12.0.0", isOptimized: true, runtimeVersion: 0, emissionKind: FullDebug, enums: !2, retainedTypes: !18, globals: !815, imports: !822, nameTableKind: None)
!1 = !DIFile(filename: "func2.cpp", directory: "E:\\Documents\\Work Stuff\\Active Work Files\\Code Examples\\test_cpp01", checksumkind: CSK_MD5, checksum: "4c93a05a81493d4dd1c7139972113908")
!2 = !{!3, !11}
!3 = !DICompositeType(tag: DW_TAG_enumeration_type, name: "float_denorm_style", scope: !5, file: !4, line: 27, baseType: !6, size: 32, elements: !7, identifier: ".?AW4float_denorm_style@std@@")
!4 = !DIFile(filename: "C:\\Program Files (x86)\\Microsoft Visual Studio\\2019\\Community\\VC\\Tools\\MSVC\\14.28.29910\\include\\limits", directory: "", checksumkind: CSK_MD5, checksum: "329a861f63dca90c90f2bc9239c81cf8")
!5 = !DINamespace(name: "std", scope: null)
!6 = !DIBasicType(name: "int", size: 32, encoding: DW_ATE_signed)
!7 = !{!8, !9, !10}
!8 = !DIEnumerator(name: "denorm_indeterminate", value: -1)
!9 = !DIEnumerator(name: "denorm_absent", value: 0)
!10 = !DIEnumerator(name: "denorm_present", value: 1)
!11 = !DICompositeType(tag: DW_TAG_enumeration_type, name: "float_round_style", scope: !5, file: !4, line: 34, baseType: !6, size: 32, elements: !12, identifier: ".?AW4float_round_style@std@@")
!12 = !{!13, !14, !15, !16, !17}
!13 = !DIEnumerator(name: "round_indeterminate", value: -1)
!14 = !DIEnumerator(name: "round_toward_zero", value: 0)
!15 = !DIEnumerator(name: "round_to_nearest", value: 1)
!16 = !DIEnumerator(name: "round_toward_infinity", value: 2)
!17 = !DIEnumerator(name: "round_toward_neg_infinity", value: 3)
!18 = !{!19, !22, !24, !26, !27, !28, !31, !33, !177}
!19 = !DIDerivedType(tag: DW_TAG_typedef, name: "size_t", file: !20, line: 46, baseType: !21)
!20 = !DIFile(filename: "C:\\Program Files\\LLVM\\lib\\clang\\12.0.0\\include\\stddef.h", directory: "", checksumkind: CSK_MD5, checksum: "2499dd2361b915724b073282bea3a7bc")
!21 = !DIBasicType(name: "long long unsigned int", size: 64, encoding: DW_ATE_unsigned)
!22 = !DIDerivedType(tag: DW_TAG_pointer_type, baseType: !23, size: 64)
!23 = !DIBasicType(name: "char", size: 8, encoding: DW_ATE_signed_char)
!24 = !DIDerivedType(tag: DW_TAG_typedef, name: "uintptr_t", file: !25, line: 61, baseType: !21)
!25 = !DIFile(filename: "C:\\Program Files (x86)\\Microsoft Visual Studio\\2019\\Community\\VC\\Tools\\MSVC\\14.28.29910\\include\\vadefs.h", directory: "", checksumkind: CSK_MD5, checksum: "a4b8f96637d0704c82f39ecb6bde2ab4")
!26 = !DIDerivedType(tag: DW_TAG_pointer_type, baseType: null, size: 64)
!27 = !DIDerivedType(tag: DW_TAG_pointer_type, baseType: !24, size: 64)
!28 = !DIDerivedType(tag: DW_TAG_pointer_type, baseType: !29, size: 64)
!29 = !DIDerivedType(tag: DW_TAG_const_type, baseType: !30)
!30 = !DIDerivedType(tag: DW_TAG_volatile_type, baseType: null)
!31 = !DIDerivedType(tag: DW_TAG_pointer_type, baseType: !32, size: 64)
!32 = !DIDerivedType(tag: DW_TAG_const_type, baseType: !23)
!33 = distinct !DICompositeType(tag: DW_TAG_class_type, name: "basic_string<char,std::char_traits<char>,std::allocator<char> >", scope: !5, file: !34, line: 2279, size: 256, flags: DIFlagTypePassByReference | DIFlagNonTrivial, elements: !35, templateParams: !813, identifier: ".?AV?$basic_string@DU?$char_traits@D@std@@V?$allocator@D@2@@std@@")
!34 = !DIFile(filename: "C:\\Program Files (x86)\\Microsoft Visual Studio\\2019\\Community\\VC\\Tools\\MSVC\\14.28.29910\\include\\xstring", directory: "", checksumkind: CSK_MD5, checksum: "d9f7a6514110285461f0bcf993b7b1a2")
!35 = !{!36, !163, !176, !272, !384, !385, !386, !387, !388, !389, !390, !392, !395, !397, !399, !402, !404, !406, !407, !408, !409, !410, !411, !430, !436, !439, !442, !445, !449, !452, !455, !458, !461, !464, !467, !470, !483, !486, !490, !493, !497, !501, !505, !509, !513, !516, !517, !518, !521, !524, !525, !530, !533, !534, !535, !536, !541, !544, !545, !546, !549, !552, !555, !558, !561, !562, !563, !566, !567, !570, !573, !574, !577, !578, !579, !580, !581, !582, !585, !588, !591, !594, !597, !600, !603, !606, !609, !612, !615, !618, !619, !622, !625, !628, !631, !634, !637, !640, !643, !646, !649, !653, !654, !655, !658, !661, !662, !663, !666, !669, !670, !671, !672, !673, !674, !675, !676, !679, !682, !683, !684, !687, !688, !691, !694, !695, !696, !697, !698, !701, !702, !703, !704, !705, !708, !711, !714, !717, !718, !722, !723, !726, !729, !732, !735, !738, !739, !740, !741, !742, !743, !744, !745, !746, !749, !750, !751, !752, !753, !754, !757, !758, !759, !760, !761, !762, !765, !768, !771, !774, !777, !780, !783, !786, !789, !792, !795, !798, !799, !800, !801, !802, !803, !804, !808}
!36 = !DIDerivedType(tag: DW_TAG_typedef, name: "_Alty", scope: !33, file: !34, line: 2283, baseType: !37)
!37 = !DIDerivedType(tag: DW_TAG_typedef, name: "_Rebind_alloc_t<std::allocator<char>,char>", scope: !5, file: !38, line: 733, baseType: !39)
!38 = !DIFile(filename: "C:\\Program Files (x86)\\Microsoft Visual Studio\\2019\\Community\\VC\\Tools\\MSVC\\14.28.29910\\include\\xmemory", directory: "", checksumkind: CSK_MD5, checksum: "9314632aeaac5efb25edb53449740be9")
!39 = !DIDerivedType(tag: DW_TAG_typedef, name: "rebind_alloc<char>", scope: !40, file: !38, line: 675, baseType: !43)
!40 = distinct !DICompositeType(tag: DW_TAG_structure_type, name: "_Default_allocator_traits<std::allocator<char> >", scope: !5, file: !38, line: 657, size: 8, flags: DIFlagTypePassByValue, elements: !41, templateParams: !161, identifier: ".?AU?$_Default_allocator_traits@V?$allocator@D@std@@@std@@")
!41 = !{!42, !112, !113, !115, !118, !119, !120, !121, !122, !138, !139, !140, !141, !147, !151, !155, !158}
!42 = !DIDerivedType(tag: DW_TAG_typedef, name: "allocator_type", scope: !40, file: !38, line: 658, baseType: !43)
!43 = distinct !DICompositeType(tag: DW_TAG_class_type, name: "allocator<char>", scope: !5, file: !38, line: 763, size: 8, flags: DIFlagTypePassByValue | DIFlagNonTrivial, elements: !44, templateParams: !110, identifier: ".?AV?$allocator@D@std@@")
!44 = !{!45, !46, !47, !48, !49, !51, !53, !54, !57, !77, !78, !83, !86, !90, !94, !99, !102, !107}
!45 = !DIDerivedType(tag: DW_TAG_typedef, name: "_From_primary", scope: !43, file: !38, line: 768, baseType: !43)
!46 = !DIDerivedType(tag: DW_TAG_typedef, name: "value_type", scope: !43, file: !38, line: 770, baseType: !23)
!47 = !DIDerivedType(tag: DW_TAG_typedef, name: "pointer", scope: !43, file: !38, line: 772, baseType: !22)
!48 = !DIDerivedType(tag: DW_TAG_typedef, name: "const_pointer", scope: !43, file: !38, line: 773, baseType: !31)
!49 = !DIDerivedType(tag: DW_TAG_typedef, name: "reference", scope: !43, file: !38, line: 775, baseType: !50)
!50 = !DIDerivedType(tag: DW_TAG_reference_type, baseType: !23, size: 64)
!51 = !DIDerivedType(tag: DW_TAG_typedef, name: "const_reference", scope: !43, file: !38, line: 776, baseType: !52)
!52 = !DIDerivedType(tag: DW_TAG_reference_type, baseType: !32, size: 64)
!53 = !DIDerivedType(tag: DW_TAG_typedef, name: "size_type", scope: !43, file: !38, line: 778, baseType: !19)
!54 = !DIDerivedType(tag: DW_TAG_typedef, name: "difference_type", scope: !43, file: !38, line: 779, baseType: !55)
!55 = !DIDerivedType(tag: DW_TAG_typedef, name: "ptrdiff_t", file: !20, line: 35, baseType: !56)
!56 = !DIBasicType(name: "long long int", size: 64, encoding: DW_ATE_signed)
!57 = !DIDerivedType(tag: DW_TAG_typedef, name: "propagate_on_container_move_assignment", scope: !43, file: !38, line: 781, baseType: !58)
!58 = !DIDerivedType(tag: DW_TAG_typedef, name: "true_type", scope: !5, file: !59, line: 41, baseType: !60)
!59 = !DIFile(filename: "C:\\Program Files (x86)\\Microsoft Visual Studio\\2019\\Community\\VC\\Tools\\MSVC\\14.28.29910\\include\\xtr1common", directory: "", checksumkind: CSK_MD5, checksum: "30144ce5d9b954ba3b99adea12ced09e")
!60 = !DIDerivedType(tag: DW_TAG_typedef, name: "bool_constant<true>", scope: !5, file: !59, line: 39, baseType: !61)
!61 = distinct !DICompositeType(tag: DW_TAG_structure_type, name: "integral_constant<bool,1>", scope: !5, file: !59, line: 22, size: 8, flags: DIFlagTypePassByValue, elements: !62, templateParams: !74, identifier: ".?AU?$integral_constant@_N$00@std@@")
!62 = !{!63, !66, !67, !68, !73}
!63 = !DIDerivedType(tag: DW_TAG_member, name: "value", scope: !61, file: !59, line: 23, baseType: !64, flags: DIFlagStaticMember)
!64 = !DIDerivedType(tag: DW_TAG_const_type, baseType: !65)
!65 = !DIBasicType(name: "bool", size: 8, encoding: DW_ATE_boolean)
!66 = !DIDerivedType(tag: DW_TAG_typedef, name: "value_type", scope: !61, file: !59, line: 25, baseType: !65)
!67 = !DIDerivedType(tag: DW_TAG_typedef, name: "type", scope: !61, file: !59, line: 26, baseType: !61)
!68 = !DISubprogram(name: "operator bool", linkageName: "??B?$integral_constant@_N$00@std@@QEBA_NXZ", scope: !61, file: !59, line: 28, type: !69, scopeLine: 28, flags: DIFlagPrototyped, spFlags: DISPFlagOptimized)
!69 = !DISubroutineType(types: !70)
!70 = !{!66, !71}
!71 = !DIDerivedType(tag: DW_TAG_pointer_type, baseType: !72, size: 64, flags: DIFlagArtificial | DIFlagObjectPointer)
!72 = !DIDerivedType(tag: DW_TAG_const_type, baseType: !61)
!73 = !DISubprogram(name: "operator()", linkageName: "??R?$integral_constant@_N$00@std@@QEBA_NXZ", scope: !61, file: !59, line: 32, type: !69, scopeLine: 32, flags: DIFlagPrototyped, spFlags: DISPFlagOptimized)
!74 = !{!75, !76}
!75 = !DITemplateTypeParameter(name: "_Ty", type: !65)
!76 = !DITemplateValueParameter(name: "_Val", type: !65, value: i8 1)
!77 = !DIDerivedType(tag: DW_TAG_typedef, name: "is_always_equal", scope: !43, file: !38, line: 782, baseType: !58)
!78 = !DISubprogram(name: "address", linkageName: "?address@?$allocator@D@std@@QEBAPEADAEAD@Z", scope: !43, file: !38, line: 789, type: !79, scopeLine: 789, flags: DIFlagPublic | DIFlagPrototyped, spFlags: DISPFlagOptimized)
!79 = !DISubroutineType(types: !80)
!80 = !{!22, !81, !50}
!81 = !DIDerivedType(tag: DW_TAG_pointer_type, baseType: !82, size: 64, flags: DIFlagArtificial | DIFlagObjectPointer)
!82 = !DIDerivedType(tag: DW_TAG_const_type, baseType: !43)
!83 = !DISubprogram(name: "address", linkageName: "?address@?$allocator@D@std@@QEBAPEBDAEBD@Z", scope: !43, file: !38, line: 793, type: !84, scopeLine: 793, flags: DIFlagPublic | DIFlagPrototyped, spFlags: DISPFlagOptimized)
!84 = !DISubroutineType(types: !85)
!85 = !{!31, !81, !52}
!86 = !DISubprogram(name: "allocator", scope: !43, file: !38, line: 797, type: !87, scopeLine: 797, flags: DIFlagPublic | DIFlagPrototyped, spFlags: DISPFlagOptimized)
!87 = !DISubroutineType(types: !88)
!88 = !{null, !89}
!89 = !DIDerivedType(tag: DW_TAG_pointer_type, baseType: !43, size: 64, flags: DIFlagArtificial | DIFlagObjectPointer)
!90 = !DISubprogram(name: "allocator", scope: !43, file: !38, line: 799, type: !91, scopeLine: 799, flags: DIFlagPublic | DIFlagPrototyped, spFlags: DISPFlagOptimized)
!91 = !DISubroutineType(types: !92)
!92 = !{null, !89, !93}
!93 = !DIDerivedType(tag: DW_TAG_reference_type, baseType: !82, size: 64)
!94 = !DISubprogram(name: "deallocate", linkageName: "?deallocate@?$allocator@D@std@@QEAAXQEAD_K@Z", scope: !43, file: !38, line: 803, type: !95, scopeLine: 803, flags: DIFlagPublic | DIFlagPrototyped, spFlags: DISPFlagOptimized)
!95 = !DISubroutineType(types: !96)
!96 = !{null, !89, !97, !98}
!97 = !DIDerivedType(tag: DW_TAG_const_type, baseType: !22)
!98 = !DIDerivedType(tag: DW_TAG_const_type, baseType: !19)
!99 = !DISubprogram(name: "allocate", linkageName: "?allocate@?$allocator@D@std@@QEAAPEAD_K@Z", scope: !43, file: !38, line: 808, type: !100, scopeLine: 808, flags: DIFlagPublic | DIFlagPrototyped, spFlags: DISPFlagOptimized)
!100 = !DISubroutineType(types: !101)
!101 = !{!22, !89, !98}
!102 = !DISubprogram(name: "allocate", linkageName: "?allocate@?$allocator@D@std@@QEAAPEAD_KPEBX@Z", scope: !43, file: !38, line: 812, type: !103, scopeLine: 812, flags: DIFlagPublic | DIFlagPrototyped, spFlags: DISPFlagOptimized)
!103 = !DISubroutineType(types: !104)
!104 = !{!22, !89, !98, !105}
!105 = !DIDerivedType(tag: DW_TAG_pointer_type, baseType: !106, size: 64)
!106 = !DIDerivedType(tag: DW_TAG_const_type, baseType: null)
!107 = !DISubprogram(name: "max_size", linkageName: "?max_size@?$allocator@D@std@@QEBA_KXZ", scope: !43, file: !38, line: 827, type: !108, scopeLine: 827, flags: DIFlagPublic | DIFlagPrototyped, spFlags: DISPFlagOptimized)
!108 = !DISubroutineType(types: !109)
!109 = !{!19, !81}
!110 = !{!111}
!111 = !DITemplateTypeParameter(name: "_Ty", type: !23)
!112 = !DIDerivedType(tag: DW_TAG_typedef, name: "value_type", scope: !40, file: !38, line: 659, baseType: !46)
!113 = !DIDerivedType(tag: DW_TAG_typedef, name: "pointer", scope: !40, file: !38, line: 661, baseType: !114)
!114 = !DIDerivedType(tag: DW_TAG_pointer_type, baseType: !112, size: 64)
!115 = !DIDerivedType(tag: DW_TAG_typedef, name: "const_pointer", scope: !40, file: !38, line: 662, baseType: !116)
!116 = !DIDerivedType(tag: DW_TAG_pointer_type, baseType: !117, size: 64)
!117 = !DIDerivedType(tag: DW_TAG_const_type, baseType: !112)
!118 = !DIDerivedType(tag: DW_TAG_typedef, name: "void_pointer", scope: !40, file: !38, line: 663, baseType: !26)
!119 = !DIDerivedType(tag: DW_TAG_typedef, name: "const_void_pointer", scope: !40, file: !38, line: 664, baseType: !105)
!120 = !DIDerivedType(tag: DW_TAG_typedef, name: "size_type", scope: !40, file: !38, line: 666, baseType: !19)
!121 = !DIDerivedType(tag: DW_TAG_typedef, name: "difference_type", scope: !40, file: !38, line: 667, baseType: !55)
!122 = !DIDerivedType(tag: DW_TAG_typedef, name: "propagate_on_container_copy_assignment", scope: !40, file: !38, line: 669, baseType: !123)
!123 = !DIDerivedType(tag: DW_TAG_typedef, name: "false_type", scope: !5, file: !59, line: 42, baseType: !124)
!124 = !DIDerivedType(tag: DW_TAG_typedef, name: "bool_constant<false>", scope: !5, file: !59, line: 39, baseType: !125)
!125 = distinct !DICompositeType(tag: DW_TAG_structure_type, name: "integral_constant<bool,0>", scope: !5, file: !59, line: 22, size: 8, flags: DIFlagTypePassByValue, elements: !126, templateParams: !136, identifier: ".?AU?$integral_constant@_N$0A@@std@@")
!126 = !{!127, !128, !129, !130, !135}
!127 = !DIDerivedType(tag: DW_TAG_member, name: "value", scope: !125, file: !59, line: 23, baseType: !64, flags: DIFlagStaticMember)
!128 = !DIDerivedType(tag: DW_TAG_typedef, name: "value_type", scope: !125, file: !59, line: 25, baseType: !65)
!129 = !DIDerivedType(tag: DW_TAG_typedef, name: "type", scope: !125, file: !59, line: 26, baseType: !125)
!130 = !DISubprogram(name: "operator bool", linkageName: "??B?$integral_constant@_N$0A@@std@@QEBA_NXZ", scope: !125, file: !59, line: 28, type: !131, scopeLine: 28, flags: DIFlagPrototyped, spFlags: DISPFlagOptimized)
!131 = !DISubroutineType(types: !132)
!132 = !{!128, !133}
!133 = !DIDerivedType(tag: DW_TAG_pointer_type, baseType: !134, size: 64, flags: DIFlagArtificial | DIFlagObjectPointer)
!134 = !DIDerivedType(tag: DW_TAG_const_type, baseType: !125)
!135 = !DISubprogram(name: "operator()", linkageName: "??R?$integral_constant@_N$0A@@std@@QEBA_NXZ", scope: !125, file: !59, line: 32, type: !131, scopeLine: 32, flags: DIFlagPrototyped, spFlags: DISPFlagOptimized)
!136 = !{!75, !137}
!137 = !DITemplateValueParameter(name: "_Val", type: !65, value: i8 0)
!138 = !DIDerivedType(tag: DW_TAG_typedef, name: "propagate_on_container_move_assignment", scope: !40, file: !38, line: 670, baseType: !58)
!139 = !DIDerivedType(tag: DW_TAG_typedef, name: "propagate_on_container_swap", scope: !40, file: !38, line: 671, baseType: !123)
!140 = !DIDerivedType(tag: DW_TAG_typedef, name: "is_always_equal", scope: !40, file: !38, line: 672, baseType: !58)
!141 = !DISubprogram(name: "allocate", linkageName: "?allocate@?$_Default_allocator_traits@V?$allocator@D@std@@@std@@SAPEADAEAV?$allocator@D@2@_K@Z", scope: !40, file: !38, line: 680, type: !142, scopeLine: 680, flags: DIFlagPrototyped | DIFlagStaticMember, spFlags: DISPFlagOptimized)
!142 = !DISubroutineType(types: !143)
!143 = !{!113, !144, !145}
!144 = !DIDerivedType(tag: DW_TAG_reference_type, baseType: !43, size: 64)
!145 = !DIDerivedType(tag: DW_TAG_const_type, baseType: !146)
!146 = !DIDerivedType(tag: DW_TAG_typedef, name: "size_type", file: !38, line: 666, baseType: !19)
!147 = !DISubprogram(name: "allocate", linkageName: "?allocate@?$_Default_allocator_traits@V?$allocator@D@std@@@std@@SAPEADAEAV?$allocator@D@2@_KPEBX@Z", scope: !40, file: !38, line: 685, type: !148, scopeLine: 685, flags: DIFlagPrototyped | DIFlagStaticMember, spFlags: DISPFlagOptimized)
!148 = !DISubroutineType(types: !149)
!149 = !{!113, !144, !145, !150}
!150 = !DIDerivedType(tag: DW_TAG_typedef, name: "const_void_pointer", file: !38, line: 664, baseType: !105)
!151 = !DISubprogram(name: "deallocate", linkageName: "?deallocate@?$_Default_allocator_traits@V?$allocator@D@std@@@std@@SAXAEAV?$allocator@D@2@QEAD_K@Z", scope: !40, file: !38, line: 689, type: !152, scopeLine: 689, flags: DIFlagPrototyped | DIFlagStaticMember, spFlags: DISPFlagOptimized)
!152 = !DISubroutineType(types: !153)
!153 = !{null, !144, !154, !145}
!154 = !DIDerivedType(tag: DW_TAG_const_type, baseType: !113)
!155 = !DISubprogram(name: "max_size", linkageName: "?max_size@?$_Default_allocator_traits@V?$allocator@D@std@@@std@@SA_KAEBV?$allocator@D@2@@Z", scope: !40, file: !38, line: 704, type: !156, scopeLine: 704, flags: DIFlagPrototyped | DIFlagStaticMember, spFlags: DISPFlagOptimized)
!156 = !DISubroutineType(types: !157)
!157 = !{!120, !93}
!158 = !DISubprogram(name: "select_on_container_copy_construction", linkageName: "?select_on_container_copy_construction@?$_Default_allocator_traits@V?$allocator@D@std@@@std@@SA?AV?$allocator@D@2@AEBV32@@Z", scope: !40, file: !38, line: 708, type: !159, scopeLine: 708, flags: DIFlagPrototyped | DIFlagStaticMember, spFlags: DISPFlagOptimized)
!159 = !DISubroutineType(types: !160)
!160 = !{!43, !93}
!161 = !{!162}
!162 = !DITemplateTypeParameter(name: "_Alloc", type: !43)
!163 = !DIDerivedType(tag: DW_TAG_typedef, name: "_Alty_traits", scope: !33, file: !34, line: 2284, baseType: !164)
!164 = distinct !DICompositeType(tag: DW_TAG_structure_type, name: "allocator_traits<std::allocator<char> >", scope: !5, file: !38, line: 714, size: 8, flags: DIFlagTypePassByValue, elements: !165, templateParams: !161, identifier: ".?AU?$allocator_traits@V?$allocator@D@std@@@std@@")
!165 = !{!166}
!166 = !DIDerivedType(tag: DW_TAG_inheritance, scope: !164, baseType: !167, extraData: i32 0)
!167 = !DIDerivedType(tag: DW_TAG_typedef, name: "conditional_t<_Is_default_allocator<allocator<char> >::value,_Default_allocator_traits<std::allocator<char> >,_Normal_allocator_traits<std::allocator<char> > >", scope: !5, file: !59, line: 68, baseType: !168)
!168 = !DIDerivedType(tag: DW_TAG_typedef, name: "type", scope: !169, file: !59, line: 59, baseType: !40)
!169 = distinct !DICompositeType(tag: DW_TAG_structure_type, name: "conditional<1,std::_Default_allocator_traits<std::allocator<char> >,std::_Normal_allocator_traits<std::allocator<char> > >", scope: !5, file: !59, line: 58, size: 8, flags: DIFlagTypePassByValue, elements: !170, templateParams: !171, identifier: ".?AU?$conditional@$00U?$_Default_allocator_traits@V?$allocator@D@std@@@std@@U?$_Normal_allocator_traits@V?$allocator@D@std@@@2@@std@@")
!170 = !{!168}
!171 = !{!172, !173, !174}
!172 = !DITemplateValueParameter(name: "_Test", type: !65, value: i8 1)
!173 = !DITemplateTypeParameter(name: "_Ty1", type: !40)
!174 = !DITemplateTypeParameter(name: "_Ty2", type: !175)
!175 = !DICompositeType(tag: DW_TAG_structure_type, name: "_Normal_allocator_traits<std::allocator<char> >", scope: !5, file: !38, line: 499, flags: DIFlagFwdDecl | DIFlagNonTrivial, identifier: ".?AU?$_Normal_allocator_traits@V?$allocator@D@std@@@std@@")
!176 = !DIDerivedType(tag: DW_TAG_typedef, name: "_Scary_val", scope: !33, file: !34, line: 2286, baseType: !177)
!177 = distinct !DICompositeType(tag: DW_TAG_class_type, name: "_String_val<std::_Simple_types<char> >", scope: !5, file: !34, line: 2188, size: 256, flags: DIFlagTypePassByReference | DIFlagNonTrivial, elements: !178, templateParams: !270, identifier: ".?AV?$_String_val@U?$_Simple_types@D@std@@@std@@")
!178 = !{!179, !201, !214, !215, !216, !217, !218, !220, !223, !225, !226, !240, !241, !242, !243, !247, !251, !257, !260, !263, !264, !267}
!179 = !DIDerivedType(tag: DW_TAG_inheritance, scope: !177, baseType: !180, flags: DIFlagPublic, extraData: i32 0)
!180 = !DIDerivedType(tag: DW_TAG_typedef, name: "_Container_base", scope: !5, file: !38, line: 1237, baseType: !181)
!181 = distinct !DICompositeType(tag: DW_TAG_structure_type, name: "_Container_base0", scope: !5, file: !38, line: 1063, size: 8, flags: DIFlagTypePassByValue, elements: !182, identifier: ".?AU_Container_base0@std@@")
!182 = !{!183, !187, !191, !198}
!183 = !DISubprogram(name: "_Orphan_all", linkageName: "?_Orphan_all@_Container_base0@std@@QEAAXXZ", scope: !181, file: !38, line: 1064, type: !184, scopeLine: 1064, flags: DIFlagPrototyped, spFlags: DISPFlagOptimized)
!184 = !DISubroutineType(types: !185)
!185 = !{null, !186}
!186 = !DIDerivedType(tag: DW_TAG_pointer_type, baseType: !181, size: 64, flags: DIFlagArtificial | DIFlagObjectPointer)
!187 = !DISubprogram(name: "_Swap_proxy_and_iterators", linkageName: "?_Swap_proxy_and_iterators@_Container_base0@std@@QEAAXAEAU12@@Z", scope: !181, file: !38, line: 1065, type: !188, scopeLine: 1065, flags: DIFlagPrototyped, spFlags: DISPFlagOptimized)
!188 = !DISubroutineType(types: !189)
!189 = !{null, !186, !190}
!190 = !DIDerivedType(tag: DW_TAG_reference_type, baseType: !181, size: 64)
!191 = !DISubprogram(name: "_Alloc_proxy", linkageName: "?_Alloc_proxy@_Container_base0@std@@QEAAXAEBU_Fake_allocator@2@@Z", scope: !181, file: !38, line: 1066, type: !192, scopeLine: 1066, flags: DIFlagPrototyped, spFlags: DISPFlagOptimized)
!192 = !DISubroutineType(types: !193)
!193 = !{null, !186, !194}
!194 = !DIDerivedType(tag: DW_TAG_reference_type, baseType: !195, size: 64)
!195 = !DIDerivedType(tag: DW_TAG_const_type, baseType: !196)
!196 = distinct !DICompositeType(tag: DW_TAG_structure_type, name: "_Fake_allocator", scope: !5, file: !38, line: 1061, size: 8, flags: DIFlagTypePassByValue, elements: !197, identifier: ".?AU_Fake_allocator@std@@")
!197 = !{}
!198 = !DISubprogram(name: "_Reload_proxy", linkageName: "?_Reload_proxy@_Container_base0@std@@QEAAXAEBU_Fake_allocator@2@0@Z", scope: !181, file: !38, line: 1067, type: !199, scopeLine: 1067, flags: DIFlagPrototyped, spFlags: DISPFlagOptimized)
!199 = !DISubroutineType(types: !200)
!200 = !{null, !186, !194, !194}
!201 = !DIDerivedType(tag: DW_TAG_typedef, name: "value_type", scope: !177, file: !34, line: 2190, baseType: !202)
!202 = !DIDerivedType(tag: DW_TAG_typedef, name: "value_type", scope: !203, file: !38, line: 754, baseType: !23)
!203 = distinct !DICompositeType(tag: DW_TAG_structure_type, name: "_Simple_types<char>", scope: !5, file: !38, line: 752, size: 8, flags: DIFlagTypePassByValue, elements: !204, templateParams: !212, identifier: ".?AU?$_Simple_types@D@std@@")
!204 = !{!202, !205, !206, !207, !209}
!205 = !DIDerivedType(tag: DW_TAG_typedef, name: "size_type", scope: !203, file: !38, line: 755, baseType: !19)
!206 = !DIDerivedType(tag: DW_TAG_typedef, name: "difference_type", scope: !203, file: !38, line: 756, baseType: !55)
!207 = !DIDerivedType(tag: DW_TAG_typedef, name: "pointer", scope: !203, file: !38, line: 757, baseType: !208)
!208 = !DIDerivedType(tag: DW_TAG_pointer_type, baseType: !202, size: 64)
!209 = !DIDerivedType(tag: DW_TAG_typedef, name: "const_pointer", scope: !203, file: !38, line: 758, baseType: !210)
!210 = !DIDerivedType(tag: DW_TAG_pointer_type, baseType: !211, size: 64)
!211 = !DIDerivedType(tag: DW_TAG_const_type, baseType: !202)
!212 = !{!213}
!213 = !DITemplateTypeParameter(name: "_Value_type", type: !23)
!214 = !DIDerivedType(tag: DW_TAG_typedef, name: "size_type", scope: !177, file: !34, line: 2191, baseType: !205)
!215 = !DIDerivedType(tag: DW_TAG_typedef, name: "difference_type", scope: !177, file: !34, line: 2192, baseType: !206)
!216 = !DIDerivedType(tag: DW_TAG_typedef, name: "pointer", scope: !177, file: !34, line: 2193, baseType: !207)
!217 = !DIDerivedType(tag: DW_TAG_typedef, name: "const_pointer", scope: !177, file: !34, line: 2194, baseType: !209)
!218 = !DIDerivedType(tag: DW_TAG_typedef, name: "reference", scope: !177, file: !34, line: 2195, baseType: !219)
!219 = !DIDerivedType(tag: DW_TAG_reference_type, baseType: !201, size: 64)
!220 = !DIDerivedType(tag: DW_TAG_typedef, name: "const_reference", scope: !177, file: !34, line: 2196, baseType: !221)
!221 = !DIDerivedType(tag: DW_TAG_reference_type, baseType: !222, size: 64)
!222 = !DIDerivedType(tag: DW_TAG_const_type, baseType: !201)
!223 = !DIDerivedType(tag: DW_TAG_member, name: "_BUF_SIZE", scope: !177, file: !34, line: 2201, baseType: !224, flags: DIFlagPublic | DIFlagStaticMember, extraData: i64 16)
!224 = !DIDerivedType(tag: DW_TAG_const_type, baseType: !214)
!225 = !DIDerivedType(tag: DW_TAG_member, name: "_ALLOC_MASK", scope: !177, file: !34, line: 2203, baseType: !224, flags: DIFlagPublic | DIFlagStaticMember, extraData: i64 15)
!226 = distinct !DICompositeType(tag: DW_TAG_union_type, name: "_Bxty", scope: !177, file: !34, line: 2251, size: 128, flags: DIFlagTypePassByReference | DIFlagNonTrivial, elements: !227, identifier: ".?AT_Bxty@?$_String_val@U?$_Simple_types@D@std@@@std@@")
!227 = !{!228, !232, !233, !235, !239}
!228 = !DIDerivedType(tag: DW_TAG_member, name: "_Buf", scope: !226, file: !34, line: 2256, baseType: !229, size: 128)
!229 = !DICompositeType(tag: DW_TAG_array_type, baseType: !201, size: 128, elements: !230)
!230 = !{!231}
!231 = !DISubrange(count: 16)
!232 = !DIDerivedType(tag: DW_TAG_member, name: "_Ptr", scope: !226, file: !34, line: 2257, baseType: !216, size: 64)
!233 = !DIDerivedType(tag: DW_TAG_member, name: "_Alias", scope: !226, file: !34, line: 2258, baseType: !234, size: 128)
!234 = !DICompositeType(tag: DW_TAG_array_type, baseType: !23, size: 128, elements: !230)
!235 = !DISubprogram(name: "_Bxty", scope: !226, file: !34, line: 2252, type: !236, scopeLine: 2252, flags: DIFlagPrototyped, spFlags: DISPFlagOptimized)
!236 = !DISubroutineType(types: !237)
!237 = !{null, !238}
!238 = !DIDerivedType(tag: DW_TAG_pointer_type, baseType: !226, size: 64, flags: DIFlagArtificial | DIFlagObjectPointer)
!239 = !DISubprogram(name: "~_Bxty", scope: !226, file: !34, line: 2254, type: !236, scopeLine: 2254, flags: DIFlagPrototyped, spFlags: DISPFlagOptimized)
!240 = !DIDerivedType(tag: DW_TAG_member, name: "_Bx", scope: !177, file: !34, line: 2259, baseType: !226, size: 128, flags: DIFlagPublic)
!241 = !DIDerivedType(tag: DW_TAG_member, name: "_Mysize", scope: !177, file: !34, line: 2261, baseType: !214, size: 64, offset: 128, flags: DIFlagPublic)
!242 = !DIDerivedType(tag: DW_TAG_member, name: "_Myres", scope: !177, file: !34, line: 2262, baseType: !214, size: 64, offset: 192, flags: DIFlagPublic)
!243 = !DISubprogram(name: "_String_val", scope: !177, file: !34, line: 2198, type: !244, scopeLine: 2198, flags: DIFlagPublic | DIFlagPrototyped, spFlags: DISPFlagOptimized)
!244 = !DISubroutineType(types: !245)
!245 = !{null, !246}
!246 = !DIDerivedType(tag: DW_TAG_pointer_type, baseType: !177, size: 64, flags: DIFlagArtificial | DIFlagObjectPointer)
!247 = !DISubprogram(name: "_Myptr", linkageName: "?_Myptr@?$_String_val@U?$_Simple_types@D@std@@@std@@QEAAPEADXZ", scope: !177, file: !34, line: 2208, type: !248, scopeLine: 2208, flags: DIFlagPublic | DIFlagPrototyped, spFlags: DISPFlagOptimized)
!248 = !DISubroutineType(types: !249)
!249 = !{!250, !246}
!250 = !DIDerivedType(tag: DW_TAG_pointer_type, baseType: !201, size: 64)
!251 = !DISubprogram(name: "_Myptr", linkageName: "?_Myptr@?$_String_val@U?$_Simple_types@D@std@@@std@@QEBAPEBDXZ", scope: !177, file: !34, line: 2217, type: !252, scopeLine: 2217, flags: DIFlagPublic | DIFlagPrototyped, spFlags: DISPFlagOptimized)
!252 = !DISubroutineType(types: !253)
!253 = !{!254, !255}
!254 = !DIDerivedType(tag: DW_TAG_pointer_type, baseType: !222, size: 64)
!255 = !DIDerivedType(tag: DW_TAG_pointer_type, baseType: !256, size: 64, flags: DIFlagArtificial | DIFlagObjectPointer)
!256 = !DIDerivedType(tag: DW_TAG_const_type, baseType: !177)
!257 = !DISubprogram(name: "_Large_string_engaged", linkageName: "?_Large_string_engaged@?$_String_val@U?$_Simple_types@D@std@@@std@@QEBA_NXZ", scope: !177, file: !34, line: 2226, type: !258, scopeLine: 2226, flags: DIFlagPublic | DIFlagPrototyped, spFlags: DISPFlagOptimized)
!258 = !DISubroutineType(types: !259)
!259 = !{!65, !255}
!260 = !DISubprogram(name: "_Check_offset", linkageName: "?_Check_offset@?$_String_val@U?$_Simple_types@D@std@@@std@@QEBAX_K@Z", scope: !177, file: !34, line: 2230, type: !261, scopeLine: 2230, flags: DIFlagPublic | DIFlagPrototyped, spFlags: DISPFlagOptimized)
!261 = !DISubroutineType(types: !262)
!262 = !{null, !255, !224}
!263 = !DISubprogram(name: "_Check_offset_exclusive", linkageName: "?_Check_offset_exclusive@?$_String_val@U?$_Simple_types@D@std@@@std@@QEBAX_K@Z", scope: !177, file: !34, line: 2236, type: !261, scopeLine: 2236, flags: DIFlagPublic | DIFlagPrototyped, spFlags: DISPFlagOptimized)
!264 = !DISubprogram(name: "_Xran", linkageName: "?_Xran@?$_String_val@U?$_Simple_types@D@std@@@std@@SAXXZ", scope: !177, file: !34, line: 2242, type: !265, scopeLine: 2242, flags: DIFlagPublic | DIFlagPrototyped | DIFlagStaticMember | DIFlagNoReturn, spFlags: DISPFlagOptimized)
!265 = !DISubroutineType(types: !266)
!266 = !{null}
!267 = !DISubprogram(name: "_Clamp_suffix_size", linkageName: "?_Clamp_suffix_size@?$_String_val@U?$_Simple_types@D@std@@@std@@QEBA_K_K0@Z", scope: !177, file: !34, line: 2246, type: !268, scopeLine: 2246, flags: DIFlagPublic | DIFlagPrototyped, spFlags: DISPFlagOptimized)
!268 = !DISubroutineType(types: !269)
!269 = !{!214, !255, !224, !224}
!270 = !{!271}
!271 = !DITemplateTypeParameter(name: "_Val_types", type: !203)
!272 = !DIDerivedType(tag: DW_TAG_typedef, name: "traits_type", scope: !33, file: !34, line: 2302, baseType: !273)
!273 = distinct !DICompositeType(tag: DW_TAG_structure_type, name: "char_traits<char>", scope: !5, file: !34, line: 465, size: 8, flags: DIFlagTypePassByValue, elements: !274, templateParams: !383, identifier: ".?AU?$char_traits@D@std@@")
!274 = !{!275}
!275 = !DIDerivedType(tag: DW_TAG_inheritance, scope: !273, baseType: !276, extraData: i32 0)
!276 = distinct !DICompositeType(tag: DW_TAG_structure_type, name: "_Narrow_char_traits<char,int>", scope: !5, file: !34, line: 347, size: 8, flags: DIFlagTypePassByValue, elements: !277, templateParams: !343, identifier: ".?AU?$_Narrow_char_traits@DH@std@@")
!277 = !{!278, !346, !347, !348, !349, !350, !351, !353, !356, !359, !362, !363, !364, !365, !366, !371, !374, !377, !380}
!278 = !DIDerivedType(tag: DW_TAG_inheritance, scope: !276, baseType: !279, flags: DIFlagPrivate, extraData: i32 0)
!279 = distinct !DICompositeType(tag: DW_TAG_structure_type, name: "_Char_traits<char,int>", scope: !5, file: !34, line: 36, size: 8, flags: DIFlagTypePassByValue, elements: !280, templateParams: !343, identifier: ".?AU?$_Char_traits@DH@std@@")
!280 = !{!281, !282, !283, !287, !289, !299, !303, !306, !307, !310, !313, !316, !319, !322, !325, !326, !331, !334, !337, !340}
!281 = !DIDerivedType(tag: DW_TAG_typedef, name: "char_type", scope: !279, file: !34, line: 37, baseType: !23)
!282 = !DIDerivedType(tag: DW_TAG_typedef, name: "int_type", scope: !279, file: !34, line: 38, baseType: !6)
!283 = !DIDerivedType(tag: DW_TAG_typedef, name: "pos_type", scope: !279, file: !34, line: 39, baseType: !284)
!284 = !DIDerivedType(tag: DW_TAG_typedef, name: "streampos", scope: !5, file: !285, line: 139, baseType: !286)
!285 = !DIFile(filename: "C:\\Program Files (x86)\\Microsoft Visual Studio\\2019\\Community\\VC\\Tools\\MSVC\\14.28.29910\\include\\iosfwd", directory: "", checksumkind: CSK_MD5, checksum: "71767b0a80f1b58a9074b3e91978653a")
!286 = !DICompositeType(tag: DW_TAG_class_type, name: "fpos<_Mbstatet>", scope: !5, file: !285, line: 53, flags: DIFlagFwdDecl | DIFlagNonTrivial, identifier: ".?AV?$fpos@U_Mbstatet@@@std@@")
!287 = !DIDerivedType(tag: DW_TAG_typedef, name: "off_type", scope: !279, file: !34, line: 40, baseType: !288)
!288 = !DIDerivedType(tag: DW_TAG_typedef, name: "streamoff", scope: !5, file: !285, line: 48, baseType: !56)
!289 = !DIDerivedType(tag: DW_TAG_typedef, name: "state_type", scope: !279, file: !34, line: 41, baseType: !290)
!290 = !DIDerivedType(tag: DW_TAG_typedef, name: "_Mbstatet", file: !291, line: 615, baseType: !292)
!291 = !DIFile(filename: "C:\\Program Files (x86)\\Windows Kits\\10\\Include\\10.0.19041.0\\ucrt\\corecrt.h", directory: "", checksumkind: CSK_MD5, checksum: "db0cd8b4d76ec84d3625032eaca2a3ca")
!292 = distinct !DICompositeType(tag: DW_TAG_structure_type, name: "_Mbstatet", file: !291, line: 611, size: 64, flags: DIFlagTypePassByValue, elements: !293, identifier: ".?AU_Mbstatet@@")
!293 = !{!294, !296, !298}
!294 = !DIDerivedType(tag: DW_TAG_member, name: "_Wchar", scope: !292, file: !291, line: 613, baseType: !295, size: 32)
!295 = !DIBasicType(name: "long unsigned int", size: 32, encoding: DW_ATE_unsigned)
!296 = !DIDerivedType(tag: DW_TAG_member, name: "_Byte", scope: !292, file: !291, line: 614, baseType: !297, size: 16, offset: 32)
!297 = !DIBasicType(name: "unsigned short", size: 16, encoding: DW_ATE_unsigned)
!298 = !DIDerivedType(tag: DW_TAG_member, name: "_State", scope: !292, file: !291, line: 614, baseType: !297, size: 16, offset: 48)
!299 = !DISubprogram(name: "copy", linkageName: "?copy@?$_Char_traits@DH@std@@SAPEADQEADQEBD_K@Z", scope: !279, file: !34, line: 45, type: !300, scopeLine: 45, flags: DIFlagPrototyped | DIFlagStaticMember, spFlags: DISPFlagOptimized)
!300 = !DISubroutineType(types: !301)
!301 = !{!22, !97, !302, !98}
!302 = !DIDerivedType(tag: DW_TAG_const_type, baseType: !31)
!303 = !DISubprogram(name: "_Copy_s", linkageName: "?_Copy_s@?$_Char_traits@DH@std@@SAPEADQEAD_KQEBD1@Z", scope: !279, file: !34, line: 68, type: !304, scopeLine: 68, flags: DIFlagPrototyped | DIFlagStaticMember, spFlags: DISPFlagOptimized)
!304 = !DISubroutineType(types: !305)
!305 = !{!22, !97, !98, !302, !98}
!306 = !DISubprogram(name: "move", linkageName: "?move@?$_Char_traits@DH@std@@SAPEADQEADQEBD_K@Z", scope: !279, file: !34, line: 76, type: !300, scopeLine: 76, flags: DIFlagPrototyped | DIFlagStaticMember, spFlags: DISPFlagOptimized)
!307 = !DISubprogram(name: "compare", linkageName: "?compare@?$_Char_traits@DH@std@@SAHPEBD0_K@Z", scope: !279, file: !34, line: 128, type: !308, scopeLine: 128, flags: DIFlagPrototyped | DIFlagStaticMember, spFlags: DISPFlagOptimized)
!308 = !DISubroutineType(types: !309)
!309 = !{!6, !31, !31, !19}
!310 = !DISubprogram(name: "length", linkageName: "?length@?$_Char_traits@DH@std@@SA_KPEBD@Z", scope: !279, file: !34, line: 140, type: !311, scopeLine: 140, flags: DIFlagPrototyped | DIFlagStaticMember, spFlags: DISPFlagOptimized)
!311 = !DISubroutineType(types: !312)
!312 = !{!19, !31}
!313 = !DISubprogram(name: "find", linkageName: "?find@?$_Char_traits@DH@std@@SAPEBDPEBD_KAEBD@Z", scope: !279, file: !34, line: 151, type: !314, scopeLine: 151, flags: DIFlagPrototyped | DIFlagStaticMember, spFlags: DISPFlagOptimized)
!314 = !DISubroutineType(types: !315)
!315 = !{!31, !31, !19, !52}
!316 = !DISubprogram(name: "assign", linkageName: "?assign@?$_Char_traits@DH@std@@SAPEADQEAD_KD@Z", scope: !279, file: !34, line: 163, type: !317, scopeLine: 163, flags: DIFlagPrototyped | DIFlagStaticMember, spFlags: DISPFlagOptimized)
!317 = !DISubroutineType(types: !318)
!318 = !{!22, !97, !19, !32}
!319 = !DISubprogram(name: "assign", linkageName: "?assign@?$_Char_traits@DH@std@@SAXAEADAEBD@Z", scope: !279, file: !34, line: 174, type: !320, scopeLine: 174, flags: DIFlagPrototyped | DIFlagStaticMember, spFlags: DISPFlagOptimized)
!320 = !DISubroutineType(types: !321)
!321 = !{null, !50, !52}
!322 = !DISubprogram(name: "eq", linkageName: "?eq@?$_Char_traits@DH@std@@SA_NAEBD0@Z", scope: !279, file: !34, line: 178, type: !323, scopeLine: 178, flags: DIFlagPrototyped | DIFlagStaticMember, spFlags: DISPFlagOptimized)
!323 = !DISubroutineType(types: !324)
!324 = !{!65, !52, !52}
!325 = !DISubprogram(name: "lt", linkageName: "?lt@?$_Char_traits@DH@std@@SA_NAEBD0@Z", scope: !279, file: !34, line: 182, type: !323, scopeLine: 182, flags: DIFlagPrototyped | DIFlagStaticMember, spFlags: DISPFlagOptimized)
!326 = !DISubprogram(name: "to_char_type", linkageName: "?to_char_type@?$_Char_traits@DH@std@@SADAEBH@Z", scope: !279, file: !34, line: 186, type: !327, scopeLine: 186, flags: DIFlagPrototyped | DIFlagStaticMember, spFlags: DISPFlagOptimized)
!327 = !DISubroutineType(types: !328)
!328 = !{!23, !329}
!329 = !DIDerivedType(tag: DW_TAG_reference_type, baseType: !330, size: 64)
!330 = !DIDerivedType(tag: DW_TAG_const_type, baseType: !282)
!331 = !DISubprogram(name: "to_int_type", linkageName: "?to_int_type@?$_Char_traits@DH@std@@SAHAEBD@Z", scope: !279, file: !34, line: 190, type: !332, scopeLine: 190, flags: DIFlagPrototyped | DIFlagStaticMember, spFlags: DISPFlagOptimized)
!332 = !DISubroutineType(types: !333)
!333 = !{!282, !52}
!334 = !DISubprogram(name: "eq_int_type", linkageName: "?eq_int_type@?$_Char_traits@DH@std@@SA_NAEBH0@Z", scope: !279, file: !34, line: 194, type: !335, scopeLine: 194, flags: DIFlagPrototyped | DIFlagStaticMember, spFlags: DISPFlagOptimized)
!335 = !DISubroutineType(types: !336)
!336 = !{!65, !329, !329}
!337 = !DISubprogram(name: "not_eof", linkageName: "?not_eof@?$_Char_traits@DH@std@@SAHAEBH@Z", scope: !279, file: !34, line: 198, type: !338, scopeLine: 198, flags: DIFlagPrototyped | DIFlagStaticMember, spFlags: DISPFlagOptimized)
!338 = !DISubroutineType(types: !339)
!339 = !{!282, !329}
!340 = !DISubprogram(name: "eof", linkageName: "?eof@?$_Char_traits@DH@std@@SAHXZ", scope: !279, file: !34, line: 202, type: !341, scopeLine: 202, flags: DIFlagPrototyped | DIFlagStaticMember, spFlags: DISPFlagOptimized)
!341 = !DISubroutineType(types: !342)
!342 = !{!282}
!343 = !{!344, !345}
!344 = !DITemplateTypeParameter(name: "_Elem", type: !23)
!345 = !DITemplateTypeParameter(name: "_Int_type", type: !6)
!346 = !DIDerivedType(tag: DW_TAG_typedef, name: "_Primary_char_traits", scope: !276, file: !34, line: 350, baseType: !279)
!347 = !DIDerivedType(tag: DW_TAG_typedef, name: "char_type", scope: !276, file: !34, line: 353, baseType: !23)
!348 = !DIDerivedType(tag: DW_TAG_typedef, name: "int_type", scope: !276, file: !34, line: 354, baseType: !6)
!349 = !DIDerivedType(tag: DW_TAG_typedef, name: "pos_type", scope: !276, file: !34, line: 355, baseType: !284)
!350 = !DIDerivedType(tag: DW_TAG_typedef, name: "off_type", scope: !276, file: !34, line: 356, baseType: !288)
!351 = !DIDerivedType(tag: DW_TAG_typedef, name: "state_type", scope: !276, file: !34, line: 357, baseType: !352)
!352 = !DIDerivedType(tag: DW_TAG_typedef, name: "mbstate_t", file: !291, line: 617, baseType: !290)
!353 = !DISubprogram(name: "compare", linkageName: "?compare@?$_Narrow_char_traits@DH@std@@SAHQEBD0_K@Z", scope: !276, file: !34, line: 363, type: !354, scopeLine: 363, flags: DIFlagPrototyped | DIFlagStaticMember, spFlags: DISPFlagOptimized)
!354 = !DISubroutineType(types: !355)
!355 = !{!6, !302, !302, !98}
!356 = !DISubprogram(name: "length", linkageName: "?length@?$_Narrow_char_traits@DH@std@@SA_KQEBD@Z", scope: !276, file: !34, line: 373, type: !357, scopeLine: 373, flags: DIFlagPrototyped | DIFlagStaticMember, spFlags: DISPFlagOptimized)
!357 = !DISubroutineType(types: !358)
!358 = !{!19, !302}
!359 = !DISubprogram(name: "find", linkageName: "?find@?$_Narrow_char_traits@DH@std@@SAPEBDQEBD_KAEBD@Z", scope: !276, file: !34, line: 393, type: !360, scopeLine: 393, flags: DIFlagPrototyped | DIFlagStaticMember, spFlags: DISPFlagOptimized)
!360 = !DISubroutineType(types: !361)
!361 = !{!31, !302, !98, !52}
!362 = !DISubprogram(name: "assign", linkageName: "?assign@?$_Narrow_char_traits@DH@std@@SAPEADQEAD_KD@Z", scope: !276, file: !34, line: 414, type: !317, scopeLine: 414, flags: DIFlagPrototyped | DIFlagStaticMember, spFlags: DISPFlagOptimized)
!363 = !DISubprogram(name: "assign", linkageName: "?assign@?$_Narrow_char_traits@DH@std@@SAXAEADAEBD@Z", scope: !276, file: !34, line: 427, type: !320, scopeLine: 427, flags: DIFlagPrototyped | DIFlagStaticMember, spFlags: DISPFlagOptimized)
!364 = !DISubprogram(name: "eq", linkageName: "?eq@?$_Narrow_char_traits@DH@std@@SA_NAEBD0@Z", scope: !276, file: !34, line: 431, type: !323, scopeLine: 431, flags: DIFlagPrototyped | DIFlagStaticMember, spFlags: DISPFlagOptimized)
!365 = !DISubprogram(name: "lt", linkageName: "?lt@?$_Narrow_char_traits@DH@std@@SA_NAEBD0@Z", scope: !276, file: !34, line: 435, type: !323, scopeLine: 435, flags: DIFlagPrototyped | DIFlagStaticMember, spFlags: DISPFlagOptimized)
!366 = !DISubprogram(name: "to_char_type", linkageName: "?to_char_type@?$_Narrow_char_traits@DH@std@@SADAEBH@Z", scope: !276, file: !34, line: 439, type: !367, scopeLine: 439, flags: DIFlagPrototyped | DIFlagStaticMember, spFlags: DISPFlagOptimized)
!367 = !DISubroutineType(types: !368)
!368 = !{!23, !369}
!369 = !DIDerivedType(tag: DW_TAG_reference_type, baseType: !370, size: 64)
!370 = !DIDerivedType(tag: DW_TAG_const_type, baseType: !348)
!371 = !DISubprogram(name: "to_int_type", linkageName: "?to_int_type@?$_Narrow_char_traits@DH@std@@SAHAEBD@Z", scope: !276, file: !34, line: 443, type: !372, scopeLine: 443, flags: DIFlagPrototyped | DIFlagStaticMember, spFlags: DISPFlagOptimized)
!372 = !DISubroutineType(types: !373)
!373 = !{!348, !52}
!374 = !DISubprogram(name: "eq_int_type", linkageName: "?eq_int_type@?$_Narrow_char_traits@DH@std@@SA_NAEBH0@Z", scope: !276, file: !34, line: 447, type: !375, scopeLine: 447, flags: DIFlagPrototyped | DIFlagStaticMember, spFlags: DISPFlagOptimized)
!375 = !DISubroutineType(types: !376)
!376 = !{!65, !369, !369}
!377 = !DISubprogram(name: "not_eof", linkageName: "?not_eof@?$_Narrow_char_traits@DH@std@@SAHAEBH@Z", scope: !276, file: !34, line: 451, type: !378, scopeLine: 451, flags: DIFlagPrototyped | DIFlagStaticMember, spFlags: DISPFlagOptimized)
!378 = !DISubroutineType(types: !379)
!379 = !{!348, !369}
!380 = !DISubprogram(name: "eof", linkageName: "?eof@?$_Narrow_char_traits@DH@std@@SAHXZ", scope: !276, file: !34, line: 455, type: !381, scopeLine: 455, flags: DIFlagPrototyped | DIFlagStaticMember, spFlags: DISPFlagOptimized)
!381 = !DISubroutineType(types: !382)
!382 = !{!348}
!383 = !{!344}
!384 = !DIDerivedType(tag: DW_TAG_typedef, name: "allocator_type", scope: !33, file: !34, line: 2303, baseType: !43)
!385 = !DIDerivedType(tag: DW_TAG_typedef, name: "value_type", scope: !33, file: !34, line: 2305, baseType: !23)
!386 = !DIDerivedType(tag: DW_TAG_typedef, name: "size_type", scope: !33, file: !34, line: 2306, baseType: !120)
!387 = !DIDerivedType(tag: DW_TAG_typedef, name: "difference_type", scope: !33, file: !34, line: 2307, baseType: !121)
!388 = !DIDerivedType(tag: DW_TAG_typedef, name: "pointer", scope: !33, file: !34, line: 2308, baseType: !113)
!389 = !DIDerivedType(tag: DW_TAG_typedef, name: "const_pointer", scope: !33, file: !34, line: 2309, baseType: !115)
!390 = !DIDerivedType(tag: DW_TAG_typedef, name: "reference", scope: !33, file: !34, line: 2310, baseType: !391)
!391 = !DIDerivedType(tag: DW_TAG_reference_type, baseType: !385, size: 64)
!392 = !DIDerivedType(tag: DW_TAG_typedef, name: "const_reference", scope: !33, file: !34, line: 2311, baseType: !393)
!393 = !DIDerivedType(tag: DW_TAG_reference_type, baseType: !394, size: 64)
!394 = !DIDerivedType(tag: DW_TAG_const_type, baseType: !385)
!395 = !DIDerivedType(tag: DW_TAG_typedef, name: "iterator", scope: !33, file: !34, line: 2313, baseType: !396)
!396 = !DICompositeType(tag: DW_TAG_class_type, name: "_String_iterator<std::_String_val<std::_Simple_types<char> > >", scope: !5, file: !34, line: 2060, flags: DIFlagFwdDecl | DIFlagNonTrivial, identifier: ".?AV?$_String_iterator@V?$_String_val@U?$_Simple_types@D@std@@@std@@@std@@")
!397 = !DIDerivedType(tag: DW_TAG_typedef, name: "const_iterator", scope: !33, file: !34, line: 2314, baseType: !398)
!398 = !DICompositeType(tag: DW_TAG_class_type, name: "_String_const_iterator<std::_String_val<std::_Simple_types<char> > >", scope: !5, file: !34, line: 1833, flags: DIFlagFwdDecl | DIFlagNonTrivial, identifier: ".?AV?$_String_const_iterator@V?$_String_val@U?$_Simple_types@D@std@@@std@@@std@@")
!399 = !DIDerivedType(tag: DW_TAG_typedef, name: "reverse_iterator", scope: !33, file: !34, line: 2316, baseType: !400)
!400 = !DICompositeType(tag: DW_TAG_class_type, name: "reverse_iterator<std::_String_iterator<std::_String_val<std::_Simple_types<char> > > >", scope: !5, file: !401, line: 1886, flags: DIFlagFwdDecl | DIFlagNonTrivial, identifier: ".?AV?$reverse_iterator@V?$_String_iterator@V?$_String_val@U?$_Simple_types@D@std@@@std@@@std@@@std@@")
!401 = !DIFile(filename: "C:\\Program Files (x86)\\Microsoft Visual Studio\\2019\\Community\\VC\\Tools\\MSVC\\14.28.29910\\include\\xutility", directory: "", checksumkind: CSK_MD5, checksum: "1e609a14c56e28a4cdafb768d9e4f58d")
!402 = !DIDerivedType(tag: DW_TAG_typedef, name: "const_reverse_iterator", scope: !33, file: !34, line: 2317, baseType: !403)
!403 = !DICompositeType(tag: DW_TAG_class_type, name: "reverse_iterator<std::_String_const_iterator<std::_String_val<std::_Simple_types<char> > > >", scope: !5, file: !401, line: 1886, flags: DIFlagFwdDecl | DIFlagNonTrivial, identifier: ".?AV?$reverse_iterator@V?$_String_const_iterator@V?$_String_val@U?$_Simple_types@D@std@@@std@@@std@@@std@@")
!404 = !DIDerivedType(tag: DW_TAG_member, name: "_BUF_SIZE", scope: !33, file: !34, line: 2320, baseType: !405, flags: DIFlagStaticMember, extraData: i64 16)
!405 = !DIDerivedType(tag: DW_TAG_const_type, baseType: !21)
!406 = !DIDerivedType(tag: DW_TAG_member, name: "_ALLOC_MASK", scope: !33, file: !34, line: 2321, baseType: !405, flags: DIFlagStaticMember, extraData: i64 15)
!407 = !DIDerivedType(tag: DW_TAG_member, name: "_Can_memcpy_val", scope: !33, file: !34, line: 2333, baseType: !64, flags: DIFlagStaticMember)
!408 = !DIDerivedType(tag: DW_TAG_member, name: "_Memcpy_val_offset", scope: !33, file: !34, line: 2335, baseType: !98, flags: DIFlagStaticMember)
!409 = !DIDerivedType(tag: DW_TAG_member, name: "_Memcpy_val_size", scope: !33, file: !34, line: 2336, baseType: !98, flags: DIFlagStaticMember)
!410 = !DIDerivedType(tag: DW_TAG_member, name: "npos", scope: !33, file: !34, line: 2810, baseType: !405, flags: DIFlagPublic | DIFlagStaticMember, extraData: i64 -1)
!411 = !DIDerivedType(tag: DW_TAG_member, name: "_Mypair", scope: !33, file: !34, line: 4416, baseType: !412, size: 256)
!412 = distinct !DICompositeType(tag: DW_TAG_class_type, name: "_Compressed_pair<std::allocator<char>,std::_String_val<std::_Simple_types<char> >,1>", scope: !5, file: !38, line: 1324, size: 256, flags: DIFlagTypePassByReference | DIFlagNonTrivial, elements: !413, templateParams: !426, identifier: ".?AV?$_Compressed_pair@V?$allocator@D@std@@V?$_String_val@U?$_Simple_types@D@std@@@2@$00@std@@")
!413 = !{!414, !415, !416, !417, !421}
!414 = !DIDerivedType(tag: DW_TAG_inheritance, scope: !412, baseType: !43, extraData: i32 0)
!415 = !DIDerivedType(tag: DW_TAG_member, name: "_Myval2", scope: !412, file: !38, line: 1326, baseType: !177, size: 256, flags: DIFlagPublic)
!416 = !DIDerivedType(tag: DW_TAG_typedef, name: "_Mybase", scope: !412, file: !38, line: 1328, baseType: !43)
!417 = !DISubprogram(name: "_Get_first", linkageName: "?_Get_first@?$_Compressed_pair@V?$allocator@D@std@@V?$_String_val@U?$_Simple_types@D@std@@@2@$00@std@@QEAAAEAV?$allocator@D@2@XZ", scope: !412, file: !38, line: 1340, type: !418, scopeLine: 1340, flags: DIFlagPublic | DIFlagPrototyped, spFlags: DISPFlagOptimized)
!418 = !DISubroutineType(types: !419)
!419 = !{!144, !420}
!420 = !DIDerivedType(tag: DW_TAG_pointer_type, baseType: !412, size: 64, flags: DIFlagArtificial | DIFlagObjectPointer)
!421 = !DISubprogram(name: "_Get_first", linkageName: "?_Get_first@?$_Compressed_pair@V?$allocator@D@std@@V?$_String_val@U?$_Simple_types@D@std@@@2@$00@std@@QEBAAEBV?$allocator@D@2@XZ", scope: !412, file: !38, line: 1344, type: !422, scopeLine: 1344, flags: DIFlagPublic | DIFlagPrototyped, spFlags: DISPFlagOptimized)
!422 = !DISubroutineType(types: !423)
!423 = !{!93, !424}
!424 = !DIDerivedType(tag: DW_TAG_pointer_type, baseType: !425, size: 64, flags: DIFlagArtificial | DIFlagObjectPointer)
!425 = !DIDerivedType(tag: DW_TAG_const_type, baseType: !412)
!426 = !{!427, !428, !429}
!427 = !DITemplateTypeParameter(name: "_Ty1", type: !43)
!428 = !DITemplateTypeParameter(name: "_Ty2", type: !177)
!429 = !DITemplateValueParameter(type: !65, value: i8 1)
!430 = !DISubprogram(name: "basic_string", scope: !33, file: !34, line: 2350, type: !431, scopeLine: 2350, flags: DIFlagPublic | DIFlagPrototyped, spFlags: DISPFlagOptimized)
!431 = !DISubroutineType(types: !432)
!432 = !{null, !433, !434}
!433 = !DIDerivedType(tag: DW_TAG_pointer_type, baseType: !33, size: 64, flags: DIFlagArtificial | DIFlagObjectPointer)
!434 = !DIDerivedType(tag: DW_TAG_reference_type, baseType: !435, size: 64)
!435 = !DIDerivedType(tag: DW_TAG_const_type, baseType: !33)
!436 = !DISubprogram(name: "basic_string", scope: !33, file: !34, line: 2358, type: !437, scopeLine: 2358, flags: DIFlagPublic | DIFlagPrototyped, spFlags: DISPFlagOptimized)
!437 = !DISubroutineType(types: !438)
!438 = !{null, !433, !434, !93}
!439 = !DISubprogram(name: "basic_string", scope: !33, file: !34, line: 2365, type: !440, scopeLine: 2365, flags: DIFlagPublic | DIFlagPrototyped, spFlags: DISPFlagOptimized)
!440 = !DISubroutineType(types: !441)
!441 = !{null, !433}
!442 = !DISubprogram(name: "basic_string", scope: !33, file: !34, line: 2370, type: !443, scopeLine: 2370, flags: DIFlagPublic | DIFlagExplicit | DIFlagPrototyped, spFlags: DISPFlagOptimized)
!443 = !DISubroutineType(types: !444)
!444 = !{null, !433, !93}
!445 = !DISubprogram(name: "basic_string", scope: !33, file: !34, line: 2375, type: !446, scopeLine: 2375, flags: DIFlagPublic | DIFlagPrototyped, spFlags: DISPFlagOptimized)
!446 = !DISubroutineType(types: !447)
!447 = !{null, !433, !434, !448, !93}
!448 = !DIDerivedType(tag: DW_TAG_const_type, baseType: !386)
!449 = !DISubprogram(name: "basic_string", scope: !33, file: !34, line: 2384, type: !450, scopeLine: 2384, flags: DIFlagPublic | DIFlagPrototyped, spFlags: DISPFlagOptimized)
!450 = !DISubroutineType(types: !451)
!451 = !{null, !433, !434, !448, !448, !93}
!452 = !DISubprogram(name: "basic_string", scope: !33, file: !34, line: 2394, type: !453, scopeLine: 2394, flags: DIFlagPublic | DIFlagPrototyped, spFlags: DISPFlagOptimized)
!453 = !DISubroutineType(types: !454)
!454 = !{null, !433, !302, !448}
!455 = !DISubprogram(name: "basic_string", scope: !33, file: !34, line: 2403, type: !456, scopeLine: 2403, flags: DIFlagPublic | DIFlagPrototyped, spFlags: DISPFlagOptimized)
!456 = !DISubroutineType(types: !457)
!457 = !{null, !433, !302, !448, !93}
!458 = !DISubprogram(name: "basic_string", scope: !33, file: !34, line: 2413, type: !459, scopeLine: 2413, flags: DIFlagPublic | DIFlagPrototyped, spFlags: DISPFlagOptimized)
!459 = !DISubroutineType(types: !460)
!460 = !{null, !433, !302}
!461 = !DISubprogram(name: "basic_string", scope: !33, file: !34, line: 2424, type: !462, scopeLine: 2424, flags: DIFlagPublic | DIFlagPrototyped, spFlags: DISPFlagOptimized)
!462 = !DISubroutineType(types: !463)
!463 = !{null, !433, !302, !93}
!464 = !DISubprogram(name: "basic_string", scope: !33, file: !34, line: 2432, type: !465, scopeLine: 2432, flags: DIFlagPublic | DIFlagPrototyped, spFlags: DISPFlagOptimized)
!465 = !DISubroutineType(types: !466)
!466 = !{null, !433, !448, !32}
!467 = !DISubprogram(name: "basic_string", scope: !33, file: !34, line: 2444, type: !468, scopeLine: 2444, flags: DIFlagPublic | DIFlagPrototyped, spFlags: DISPFlagOptimized)
!468 = !DISubroutineType(types: !469)
!469 = !{null, !433, !448, !32, !93}
!470 = !DISubprogram(name: "_Construct", linkageName: "?_Construct@?$basic_string@DU?$char_traits@D@std@@V?$allocator@D@2@@std@@QEAAXQEAD0Urandom_access_iterator_tag@2@@Z", scope: !33, file: !34, line: 2482, type: !471, scopeLine: 2482, flags: DIFlagPublic | DIFlagPrototyped, spFlags: DISPFlagOptimized)
!471 = !DISubroutineType(types: !472)
!472 = !{null, !433, !97, !97, !473}
!473 = distinct !DICompositeType(tag: DW_TAG_structure_type, name: "random_access_iterator_tag", scope: !5, file: !401, line: 273, size: 8, flags: DIFlagTypePassByValue, elements: !474, identifier: ".?AUrandom_access_iterator_tag@std@@")
!474 = !{!475}
!475 = !DIDerivedType(tag: DW_TAG_inheritance, scope: !473, baseType: !476, extraData: i32 0)
!476 = distinct !DICompositeType(tag: DW_TAG_structure_type, name: "bidirectional_iterator_tag", scope: !5, file: !401, line: 271, size: 8, flags: DIFlagTypePassByValue, elements: !477, identifier: ".?AUbidirectional_iterator_tag@std@@")
!477 = !{!478}
!478 = !DIDerivedType(tag: DW_TAG_inheritance, scope: !476, baseType: !479, extraData: i32 0)
!479 = distinct !DICompositeType(tag: DW_TAG_structure_type, name: "forward_iterator_tag", scope: !5, file: !401, line: 269, size: 8, flags: DIFlagTypePassByValue, elements: !480, identifier: ".?AUforward_iterator_tag@std@@")
!480 = !{!481}
!481 = !DIDerivedType(tag: DW_TAG_inheritance, scope: !479, baseType: !482, extraData: i32 0)
!482 = distinct !DICompositeType(tag: DW_TAG_structure_type, name: "input_iterator_tag", scope: !5, file: !401, line: 265, size: 8, flags: DIFlagTypePassByValue, elements: !197, identifier: ".?AUinput_iterator_tag@std@@")
!483 = !DISubprogram(name: "_Construct", linkageName: "?_Construct@?$basic_string@DU?$char_traits@D@std@@V?$allocator@D@2@@std@@QEAAXQEBD0Urandom_access_iterator_tag@2@@Z", scope: !33, file: !34, line: 2489, type: !484, scopeLine: 2489, flags: DIFlagPublic | DIFlagPrototyped, spFlags: DISPFlagOptimized)
!484 = !DISubroutineType(types: !485)
!485 = !{null, !433, !302, !302, !473}
!486 = !DISubprogram(name: "basic_string", scope: !33, file: !34, line: 2496, type: !487, scopeLine: 2496, flags: DIFlagPublic | DIFlagPrototyped, spFlags: DISPFlagOptimized)
!487 = !DISubroutineType(types: !488)
!488 = !{null, !433, !489}
!489 = !DIDerivedType(tag: DW_TAG_rvalue_reference_type, baseType: !33, size: 64)
!490 = !DISubprogram(name: "basic_string", scope: !33, file: !34, line: 2501, type: !491, scopeLine: 2501, flags: DIFlagPublic | DIFlagPrototyped, spFlags: DISPFlagOptimized)
!491 = !DISubroutineType(types: !492)
!492 = !{null, !433, !489, !93}
!493 = !DISubprogram(name: "basic_string", scope: !33, file: !34, line: 2518, type: !494, scopeLine: 2518, flags: DIFlagPublic | DIFlagPrototyped, spFlags: DISPFlagOptimized)
!494 = !DISubroutineType(types: !495)
!495 = !{null, !433, !496, !434, !302, !448, !302, !448}
!496 = !DICompositeType(tag: DW_TAG_structure_type, name: "_String_constructor_concat_tag", scope: !5, file: !34, line: 2269, size: 8, flags: DIFlagFwdDecl, identifier: ".?AU_String_constructor_concat_tag@std@@")
!497 = !DISubprogram(name: "basic_string", scope: !33, file: !34, line: 2546, type: !498, scopeLine: 2546, flags: DIFlagPublic | DIFlagPrototyped, spFlags: DISPFlagOptimized)
!498 = !DISubroutineType(types: !499)
!499 = !{null, !433, !496, !500, !500}
!500 = !DIDerivedType(tag: DW_TAG_reference_type, baseType: !33, size: 64)
!501 = !DISubprogram(name: "_Move_assign", linkageName: "?_Move_assign@?$basic_string@DU?$char_traits@D@std@@V?$allocator@D@2@@std@@AEAAXAEAV12@U_Equal_allocators@2@@Z", scope: !33, file: !34, line: 2636, type: !502, scopeLine: 2636, flags: DIFlagPrototyped, spFlags: DISPFlagOptimized)
!502 = !DISubroutineType(types: !503)
!503 = !{null, !433, !500, !504}
!504 = !DICompositeType(tag: DW_TAG_structure_type, name: "_Equal_allocators", scope: !5, file: !38, line: 723, size: 8, flags: DIFlagFwdDecl, identifier: ".?AU_Equal_allocators@std@@")
!505 = !DISubprogram(name: "_Move_assign", linkageName: "?_Move_assign@?$basic_string@DU?$char_traits@D@std@@V?$allocator@D@2@@std@@AEAAXAEAV12@U?$integral_constant@_N$00@2@@Z", scope: !33, file: !34, line: 2642, type: !506, scopeLine: 2642, flags: DIFlagPrototyped, spFlags: DISPFlagOptimized)
!506 = !DISubroutineType(types: !507)
!507 = !{null, !433, !500, !508}
!508 = !DIDerivedType(tag: DW_TAG_typedef, name: "_Propagate_allocators", scope: !5, file: !38, line: 724, baseType: !58)
!509 = !DISubprogram(name: "_Move_assign", linkageName: "?_Move_assign@?$basic_string@DU?$char_traits@D@std@@V?$allocator@D@2@@std@@AEAAXAEAV12@U?$integral_constant@_N$0A@@2@@Z", scope: !33, file: !34, line: 2655, type: !510, scopeLine: 2655, flags: DIFlagPrototyped, spFlags: DISPFlagOptimized)
!510 = !DISubroutineType(types: !511)
!511 = !{null, !433, !500, !512}
!512 = !DIDerivedType(tag: DW_TAG_typedef, name: "_No_propagate_allocators", scope: !5, file: !38, line: 725, baseType: !123)
!513 = !DISubprogram(name: "operator=", linkageName: "??4?$basic_string@DU?$char_traits@D@std@@V?$allocator@D@2@@std@@QEAAAEAV01@$$QEAV01@@Z", scope: !33, file: !34, line: 2664, type: !514, scopeLine: 2664, flags: DIFlagPublic | DIFlagPrototyped, spFlags: DISPFlagOptimized)
!514 = !DISubroutineType(types: !515)
!515 = !{!500, !433, !489}
!516 = !DISubprogram(name: "assign", linkageName: "?assign@?$basic_string@DU?$char_traits@D@std@@V?$allocator@D@2@@std@@QEAAAEAV12@$$QEAV12@@Z", scope: !33, file: !34, line: 2672, type: !514, scopeLine: 2672, flags: DIFlagPublic | DIFlagPrototyped, spFlags: DISPFlagOptimized)
!517 = !DISubprogram(name: "_Memcpy_val_from", linkageName: "?_Memcpy_val_from@?$basic_string@DU?$char_traits@D@std@@V?$allocator@D@2@@std@@AEAAXAEBV12@@Z", scope: !33, file: !34, line: 2678, type: !431, scopeLine: 2678, flags: DIFlagPrototyped, spFlags: DISPFlagOptimized)
!518 = !DISubprogram(name: "_Take_contents", linkageName: "?_Take_contents@?$basic_string@DU?$char_traits@D@std@@V?$allocator@D@2@@std@@AEAAXAEAV12@U?$integral_constant@_N$00@2@@Z", scope: !33, file: !34, line: 2687, type: !519, scopeLine: 2687, flags: DIFlagPrototyped, spFlags: DISPFlagOptimized)
!519 = !DISubroutineType(types: !520)
!520 = !{null, !433, !500, !58}
!521 = !DISubprogram(name: "_Take_contents", linkageName: "?_Take_contents@?$basic_string@DU?$char_traits@D@std@@V?$allocator@D@2@@std@@AEAAXAEAV12@U?$integral_constant@_N$0A@@2@@Z", scope: !33, file: !34, line: 2706, type: !522, scopeLine: 2706, flags: DIFlagPrototyped, spFlags: DISPFlagOptimized)
!522 = !DISubroutineType(types: !523)
!523 = !{null, !433, !500, !123}
!524 = !DISubprogram(name: "_Construct_lv_contents", linkageName: "?_Construct_lv_contents@?$basic_string@DU?$char_traits@D@std@@V?$allocator@D@2@@std@@AEAAXAEBV12@@Z", scope: !33, file: !34, line: 2728, type: !431, scopeLine: 2728, flags: DIFlagPrototyped, spFlags: DISPFlagOptimized)
!525 = !DISubprogram(name: "basic_string", scope: !33, file: !34, line: 2754, type: !526, scopeLine: 2754, flags: DIFlagPublic | DIFlagPrototyped, spFlags: DISPFlagOptimized)
!526 = !DISubroutineType(types: !527)
!527 = !{null, !433, !528, !93}
!528 = !DICompositeType(tag: DW_TAG_class_type, name: "initializer_list<char>", scope: !5, file: !529, line: 23, size: 128, flags: DIFlagFwdDecl | DIFlagNonTrivial, identifier: ".?AV?$initializer_list@D@std@@")
!529 = !DIFile(filename: "C:\\Program Files (x86)\\Microsoft Visual Studio\\2019\\Community\\VC\\Tools\\MSVC\\14.28.29910\\include\\initializer_list", directory: "", checksumkind: CSK_MD5, checksum: "614c28410587cda93b19bfa2da486ff6")
!530 = !DISubprogram(name: "operator=", linkageName: "??4?$basic_string@DU?$char_traits@D@std@@V?$allocator@D@2@@std@@QEAAAEAV01@V?$initializer_list@D@1@@Z", scope: !33, file: !34, line: 2763, type: !531, scopeLine: 2763, flags: DIFlagPublic | DIFlagPrototyped, spFlags: DISPFlagOptimized)
!531 = !DISubroutineType(types: !532)
!532 = !{!500, !433, !528}
!533 = !DISubprogram(name: "operator+=", linkageName: "??Y?$basic_string@DU?$char_traits@D@std@@V?$allocator@D@2@@std@@QEAAAEAV01@V?$initializer_list@D@1@@Z", scope: !33, file: !34, line: 2767, type: !531, scopeLine: 2767, flags: DIFlagPublic | DIFlagPrototyped, spFlags: DISPFlagOptimized)
!534 = !DISubprogram(name: "assign", linkageName: "?assign@?$basic_string@DU?$char_traits@D@std@@V?$allocator@D@2@@std@@QEAAAEAV12@V?$initializer_list@D@2@@Z", scope: !33, file: !34, line: 2771, type: !531, scopeLine: 2771, flags: DIFlagPublic | DIFlagPrototyped, spFlags: DISPFlagOptimized)
!535 = !DISubprogram(name: "append", linkageName: "?append@?$basic_string@DU?$char_traits@D@std@@V?$allocator@D@2@@std@@QEAAAEAV12@V?$initializer_list@D@2@@Z", scope: !33, file: !34, line: 2775, type: !531, scopeLine: 2775, flags: DIFlagPublic | DIFlagPrototyped, spFlags: DISPFlagOptimized)
!536 = !DISubprogram(name: "insert", linkageName: "?insert@?$basic_string@DU?$char_traits@D@std@@V?$allocator@D@2@@std@@QEAA?AV?$_String_iterator@V?$_String_val@U?$_Simple_types@D@std@@@std@@@2@V?$_String_const_iterator@V?$_String_val@U?$_Simple_types@D@std@@@std@@@2@V?$initializer_list@D@2@@Z", scope: !33, file: !34, line: 2779, type: !537, scopeLine: 2779, flags: DIFlagPublic | DIFlagPrototyped, spFlags: DISPFlagOptimized)
!537 = !DISubroutineType(types: !538)
!538 = !{!395, !433, !539, !540}
!539 = !DIDerivedType(tag: DW_TAG_const_type, baseType: !397)
!540 = !DIDerivedType(tag: DW_TAG_const_type, baseType: !528)
!541 = !DISubprogram(name: "replace", linkageName: "?replace@?$basic_string@DU?$char_traits@D@std@@V?$allocator@D@2@@std@@QEAAAEAV12@V?$_String_const_iterator@V?$_String_val@U?$_Simple_types@D@std@@@std@@@2@0V?$initializer_list@D@2@@Z", scope: !33, file: !34, line: 2788, type: !542, scopeLine: 2788, flags: DIFlagPublic | DIFlagPrototyped, spFlags: DISPFlagOptimized)
!542 = !DISubroutineType(types: !543)
!543 = !{!500, !433, !539, !539, !540}
!544 = !DISubprogram(name: "~basic_string", scope: !33, file: !34, line: 2800, type: !440, scopeLine: 2800, flags: DIFlagPublic | DIFlagPrototyped, spFlags: DISPFlagOptimized)
!545 = !DISubprogram(name: "_Copy_assign_val_from_small", linkageName: "?_Copy_assign_val_from_small@?$basic_string@DU?$char_traits@D@std@@V?$allocator@D@2@@std@@AEAAXAEBV12@@Z", scope: !33, file: !34, line: 2813, type: !431, scopeLine: 2813, flags: DIFlagPrototyped, spFlags: DISPFlagOptimized)
!546 = !DISubprogram(name: "_Copy_assign", linkageName: "?_Copy_assign@?$basic_string@DU?$char_traits@D@std@@V?$allocator@D@2@@std@@AEAAXAEBV12@U?$integral_constant@_N$0A@@2@@Z", scope: !33, file: !34, line: 2826, type: !547, scopeLine: 2826, flags: DIFlagPrototyped, spFlags: DISPFlagOptimized)
!547 = !DISubroutineType(types: !548)
!548 = !{null, !433, !434, !123}
!549 = !DISubprogram(name: "_Copy_assign", linkageName: "?_Copy_assign@?$basic_string@DU?$char_traits@D@std@@V?$allocator@D@2@@std@@AEAAXAEBV12@U?$integral_constant@_N$00@2@@Z", scope: !33, file: !34, line: 2831, type: !550, scopeLine: 2831, flags: DIFlagPrototyped, spFlags: DISPFlagOptimized)
!550 = !DISubroutineType(types: !551)
!551 = !{null, !433, !434, !58}
!552 = !DISubprogram(name: "operator=", linkageName: "??4?$basic_string@DU?$char_traits@D@std@@V?$allocator@D@2@@std@@QEAAAEAV01@AEBV01@@Z", scope: !33, file: !34, line: 2862, type: !553, scopeLine: 2862, flags: DIFlagPublic | DIFlagPrototyped, spFlags: DISPFlagOptimized)
!553 = !DISubroutineType(types: !554)
!554 = !{!500, !433, !434}
!555 = !DISubprogram(name: "operator=", linkageName: "??4?$basic_string@DU?$char_traits@D@std@@V?$allocator@D@2@@std@@QEAAAEAV01@QEBD@Z", scope: !33, file: !34, line: 2877, type: !556, scopeLine: 2877, flags: DIFlagPublic | DIFlagPrototyped, spFlags: DISPFlagOptimized)
!556 = !DISubroutineType(types: !557)
!557 = !{!500, !433, !302}
!558 = !DISubprogram(name: "operator=", linkageName: "??4?$basic_string@DU?$char_traits@D@std@@V?$allocator@D@2@@std@@QEAAAEAV01@D@Z", scope: !33, file: !34, line: 2881, type: !559, scopeLine: 2881, flags: DIFlagPublic | DIFlagPrototyped, spFlags: DISPFlagOptimized)
!559 = !DISubroutineType(types: !560)
!560 = !{!500, !433, !32}
!561 = !DISubprogram(name: "operator+=", linkageName: "??Y?$basic_string@DU?$char_traits@D@std@@V?$allocator@D@2@@std@@QEAAAEAV01@AEBV01@@Z", scope: !33, file: !34, line: 2889, type: !553, scopeLine: 2889, flags: DIFlagPublic | DIFlagPrototyped, spFlags: DISPFlagOptimized)
!562 = !DISubprogram(name: "operator+=", linkageName: "??Y?$basic_string@DU?$char_traits@D@std@@V?$allocator@D@2@@std@@QEAAAEAV01@QEBD@Z", scope: !33, file: !34, line: 2900, type: !556, scopeLine: 2900, flags: DIFlagPublic | DIFlagPrototyped, spFlags: DISPFlagOptimized)
!563 = !DISubprogram(name: "operator+=", linkageName: "??Y?$basic_string@DU?$char_traits@D@std@@V?$allocator@D@2@@std@@QEAAAEAV01@D@Z", scope: !33, file: !34, line: 2904, type: !564, scopeLine: 2904, flags: DIFlagPublic | DIFlagPrototyped, spFlags: DISPFlagOptimized)
!564 = !DISubroutineType(types: !565)
!565 = !{!500, !433, !23}
!566 = !DISubprogram(name: "append", linkageName: "?append@?$basic_string@DU?$char_traits@D@std@@V?$allocator@D@2@@std@@QEAAAEAV12@AEBV12@@Z", scope: !33, file: !34, line: 2909, type: !553, scopeLine: 2909, flags: DIFlagPublic | DIFlagPrototyped, spFlags: DISPFlagOptimized)
!567 = !DISubprogram(name: "append", linkageName: "?append@?$basic_string@DU?$char_traits@D@std@@V?$allocator@D@2@@std@@QEAAAEAV12@AEBV12@_K_K@Z", scope: !33, file: !34, line: 2913, type: !568, scopeLine: 2913, flags: DIFlagPublic | DIFlagPrototyped, spFlags: DISPFlagOptimized)
!568 = !DISubroutineType(types: !569)
!569 = !{!500, !433, !434, !448, !386}
!570 = !DISubprogram(name: "append", linkageName: "?append@?$basic_string@DU?$char_traits@D@std@@V?$allocator@D@2@@std@@QEAAAEAV12@QEBD_K@Z", scope: !33, file: !34, line: 2935, type: !571, scopeLine: 2935, flags: DIFlagPublic | DIFlagPrototyped, spFlags: DISPFlagOptimized)
!571 = !DISubroutineType(types: !572)
!572 = !{!500, !433, !302, !448}
!573 = !DISubprogram(name: "append", linkageName: "?append@?$basic_string@DU?$char_traits@D@std@@V?$allocator@D@2@@std@@QEAAAEAV12@QEBD@Z", scope: !33, file: !34, line: 2957, type: !556, scopeLine: 2957, flags: DIFlagPublic | DIFlagPrototyped, spFlags: DISPFlagOptimized)
!574 = !DISubprogram(name: "append", linkageName: "?append@?$basic_string@DU?$char_traits@D@std@@V?$allocator@D@2@@std@@QEAAAEAV12@_KD@Z", scope: !33, file: !34, line: 2961, type: !575, scopeLine: 2961, flags: DIFlagPublic | DIFlagPrototyped, spFlags: DISPFlagOptimized)
!575 = !DISubroutineType(types: !576)
!576 = !{!500, !433, !448, !32}
!577 = !DISubprogram(name: "assign", linkageName: "?assign@?$basic_string@DU?$char_traits@D@std@@V?$allocator@D@2@@std@@QEAAAEAV12@AEBV12@@Z", scope: !33, file: !34, line: 3015, type: !553, scopeLine: 3015, flags: DIFlagPublic | DIFlagPrototyped, spFlags: DISPFlagOptimized)
!578 = !DISubprogram(name: "assign", linkageName: "?assign@?$basic_string@DU?$char_traits@D@std@@V?$allocator@D@2@@std@@QEAAAEAV12@AEBV12@_K_K@Z", scope: !33, file: !34, line: 3020, type: !568, scopeLine: 3020, flags: DIFlagPublic | DIFlagPrototyped, spFlags: DISPFlagOptimized)
!579 = !DISubprogram(name: "assign", linkageName: "?assign@?$basic_string@DU?$char_traits@D@std@@V?$allocator@D@2@@std@@QEAAAEAV12@QEBD_K@Z", scope: !33, file: !34, line: 3042, type: !571, scopeLine: 3042, flags: DIFlagPublic | DIFlagPrototyped, spFlags: DISPFlagOptimized)
!580 = !DISubprogram(name: "assign", linkageName: "?assign@?$basic_string@DU?$char_traits@D@std@@V?$allocator@D@2@@std@@QEAAAEAV12@QEBD@Z", scope: !33, file: !34, line: 3061, type: !556, scopeLine: 3061, flags: DIFlagPublic | DIFlagPrototyped, spFlags: DISPFlagOptimized)
!581 = !DISubprogram(name: "assign", linkageName: "?assign@?$basic_string@DU?$char_traits@D@std@@V?$allocator@D@2@@std@@QEAAAEAV12@_KD@Z", scope: !33, file: !34, line: 3065, type: !575, scopeLine: 3065, flags: DIFlagPublic | DIFlagPrototyped, spFlags: DISPFlagOptimized)
!582 = !DISubprogram(name: "insert", linkageName: "?insert@?$basic_string@DU?$char_traits@D@std@@V?$allocator@D@2@@std@@QEAAAEAV12@_KAEBV12@@Z", scope: !33, file: !34, line: 3128, type: !583, scopeLine: 3128, flags: DIFlagPublic | DIFlagPrototyped, spFlags: DISPFlagOptimized)
!583 = !DISubroutineType(types: !584)
!584 = !{!500, !433, !448, !434}
!585 = !DISubprogram(name: "insert", linkageName: "?insert@?$basic_string@DU?$char_traits@D@std@@V?$allocator@D@2@@std@@QEAAAEAV12@_KAEBV12@0_K@Z", scope: !33, file: !34, line: 3132, type: !586, scopeLine: 3132, flags: DIFlagPublic | DIFlagPrototyped, spFlags: DISPFlagOptimized)
!586 = !DISubroutineType(types: !587)
!587 = !{!500, !433, !448, !434, !448, !386}
!588 = !DISubprogram(name: "insert", linkageName: "?insert@?$basic_string@DU?$char_traits@D@std@@V?$allocator@D@2@@std@@QEAAAEAV12@_KQEBD0@Z", scope: !33, file: !34, line: 3155, type: !589, scopeLine: 3155, flags: DIFlagPublic | DIFlagPrototyped, spFlags: DISPFlagOptimized)
!589 = !DISubroutineType(types: !590)
!590 = !{!500, !433, !448, !302, !448}
!591 = !DISubprogram(name: "insert", linkageName: "?insert@?$basic_string@DU?$char_traits@D@std@@V?$allocator@D@2@@std@@QEAAAEAV12@_KQEBD@Z", scope: !33, file: !34, line: 3194, type: !592, scopeLine: 3194, flags: DIFlagPublic | DIFlagPrototyped, spFlags: DISPFlagOptimized)
!592 = !DISubroutineType(types: !593)
!593 = !{!500, !433, !448, !302}
!594 = !DISubprogram(name: "insert", linkageName: "?insert@?$basic_string@DU?$char_traits@D@std@@V?$allocator@D@2@@std@@QEAAAEAV12@_K0D@Z", scope: !33, file: !34, line: 3198, type: !595, scopeLine: 3198, flags: DIFlagPublic | DIFlagPrototyped, spFlags: DISPFlagOptimized)
!595 = !DISubroutineType(types: !596)
!596 = !{!500, !433, !448, !448, !32}
!597 = !DISubprogram(name: "insert", linkageName: "?insert@?$basic_string@DU?$char_traits@D@std@@V?$allocator@D@2@@std@@QEAA?AV?$_String_iterator@V?$_String_val@U?$_Simple_types@D@std@@@std@@@2@V?$_String_const_iterator@V?$_String_val@U?$_Simple_types@D@std@@@std@@@2@D@Z", scope: !33, file: !34, line: 3222, type: !598, scopeLine: 3222, flags: DIFlagPublic | DIFlagPrototyped, spFlags: DISPFlagOptimized)
!598 = !DISubroutineType(types: !599)
!599 = !{!395, !433, !539, !32}
!600 = !DISubprogram(name: "insert", linkageName: "?insert@?$basic_string@DU?$char_traits@D@std@@V?$allocator@D@2@@std@@QEAA?AV?$_String_iterator@V?$_String_val@U?$_Simple_types@D@std@@@std@@@2@V?$_String_const_iterator@V?$_String_val@U?$_Simple_types@D@std@@@std@@@2@_KD@Z", scope: !33, file: !34, line: 3231, type: !601, scopeLine: 3231, flags: DIFlagPublic | DIFlagPrototyped, spFlags: DISPFlagOptimized)
!601 = !DISubroutineType(types: !602)
!602 = !{!395, !433, !539, !448, !32}
!603 = !DISubprogram(name: "erase", linkageName: "?erase@?$basic_string@DU?$char_traits@D@std@@V?$allocator@D@2@@std@@QEAAAEAV12@_K@Z", scope: !33, file: !34, line: 3287, type: !604, scopeLine: 3287, flags: DIFlagPublic | DIFlagPrototyped, spFlags: DISPFlagOptimized)
!604 = !DISubroutineType(types: !605)
!605 = !{!500, !433, !448}
!606 = !DISubprogram(name: "_Erase_noexcept", linkageName: "?_Erase_noexcept@?$basic_string@DU?$char_traits@D@std@@V?$allocator@D@2@@std@@AEAAAEAV12@_K_K@Z", scope: !33, file: !34, line: 3294, type: !607, scopeLine: 3294, flags: DIFlagPrototyped, spFlags: DISPFlagOptimized)
!607 = !DISubroutineType(types: !608)
!608 = !{!500, !433, !448, !386}
!609 = !DISubprogram(name: "erase", linkageName: "?erase@?$basic_string@DU?$char_traits@D@std@@V?$allocator@D@2@@std@@QEAAAEAV12@_K0@Z", scope: !33, file: !34, line: 3306, type: !610, scopeLine: 3306, flags: DIFlagPublic | DIFlagPrototyped, spFlags: DISPFlagOptimized)
!610 = !DISubroutineType(types: !611)
!611 = !{!500, !433, !448, !448}
!612 = !DISubprogram(name: "erase", linkageName: "?erase@?$basic_string@DU?$char_traits@D@std@@V?$allocator@D@2@@std@@QEAA?AV?$_String_iterator@V?$_String_val@U?$_Simple_types@D@std@@@std@@@2@V?$_String_const_iterator@V?$_String_val@U?$_Simple_types@D@std@@@std@@@2@@Z", scope: !33, file: !34, line: 3311, type: !613, scopeLine: 3311, flags: DIFlagPublic | DIFlagPrototyped, spFlags: DISPFlagOptimized)
!613 = !DISubroutineType(types: !614)
!614 = !{!395, !433, !539}
!615 = !DISubprogram(name: "erase", linkageName: "?erase@?$basic_string@DU?$char_traits@D@std@@V?$allocator@D@2@@std@@QEAA?AV?$_String_iterator@V?$_String_val@U?$_Simple_types@D@std@@@std@@@2@V?$_String_const_iterator@V?$_String_val@U?$_Simple_types@D@std@@@std@@@2@0@Z", scope: !33, file: !34, line: 3320, type: !616, scopeLine: 3320, flags: DIFlagPublic | DIFlagPrototyped, spFlags: DISPFlagOptimized)
!616 = !DISubroutineType(types: !617)
!617 = !{!395, !433, !539, !539}
!618 = !DISubprogram(name: "clear", linkageName: "?clear@?$basic_string@DU?$char_traits@D@std@@V?$allocator@D@2@@std@@QEAAXXZ", scope: !33, file: !34, line: 3330, type: !440, scopeLine: 3330, flags: DIFlagPublic | DIFlagPrototyped, spFlags: DISPFlagOptimized)
!619 = !DISubprogram(name: "replace", linkageName: "?replace@?$basic_string@DU?$char_traits@D@std@@V?$allocator@D@2@@std@@QEAAAEAV12@_K0AEBV12@@Z", scope: !33, file: !34, line: 3334, type: !620, scopeLine: 3334, flags: DIFlagPublic | DIFlagPrototyped, spFlags: DISPFlagOptimized)
!620 = !DISubroutineType(types: !621)
!621 = !{!500, !433, !448, !448, !434}
!622 = !DISubprogram(name: "replace", linkageName: "?replace@?$basic_string@DU?$char_traits@D@std@@V?$allocator@D@2@@std@@QEAAAEAV12@_K_KAEBV12@01@Z", scope: !33, file: !34, line: 3339, type: !623, scopeLine: 3339, flags: DIFlagPublic | DIFlagPrototyped, spFlags: DISPFlagOptimized)
!623 = !DISubroutineType(types: !624)
!624 = !{!500, !433, !448, !386, !434, !448, !386}
!625 = !DISubprogram(name: "replace", linkageName: "?replace@?$basic_string@DU?$char_traits@D@std@@V?$allocator@D@2@@std@@QEAAAEAV12@_K_KQEBD0@Z", scope: !33, file: !34, line: 3364, type: !626, scopeLine: 3364, flags: DIFlagPublic | DIFlagPrototyped, spFlags: DISPFlagOptimized)
!626 = !DISubroutineType(types: !627)
!627 = !{!500, !433, !448, !386, !302, !448}
!628 = !DISubprogram(name: "replace", linkageName: "?replace@?$basic_string@DU?$char_traits@D@std@@V?$allocator@D@2@@std@@QEAAAEAV12@_K0QEBD@Z", scope: !33, file: !34, line: 3424, type: !629, scopeLine: 3424, flags: DIFlagPublic | DIFlagPrototyped, spFlags: DISPFlagOptimized)
!629 = !DISubroutineType(types: !630)
!630 = !{!500, !433, !448, !448, !302}
!631 = !DISubprogram(name: "replace", linkageName: "?replace@?$basic_string@DU?$char_traits@D@std@@V?$allocator@D@2@@std@@QEAAAEAV12@_K_K0D@Z", scope: !33, file: !34, line: 3429, type: !632, scopeLine: 3429, flags: DIFlagPublic | DIFlagPrototyped, spFlags: DISPFlagOptimized)
!632 = !DISubroutineType(types: !633)
!633 = !{!500, !433, !448, !386, !448, !32}
!634 = !DISubprogram(name: "replace", linkageName: "?replace@?$basic_string@DU?$char_traits@D@std@@V?$allocator@D@2@@std@@QEAAAEAV12@V?$_String_const_iterator@V?$_String_val@U?$_Simple_types@D@std@@@std@@@2@0AEBV12@@Z", scope: !33, file: !34, line: 3461, type: !635, scopeLine: 3461, flags: DIFlagPublic | DIFlagPrototyped, spFlags: DISPFlagOptimized)
!635 = !DISubroutineType(types: !636)
!636 = !{!500, !433, !539, !539, !434}
!637 = !DISubprogram(name: "replace", linkageName: "?replace@?$basic_string@DU?$char_traits@D@std@@V?$allocator@D@2@@std@@QEAAAEAV12@V?$_String_const_iterator@V?$_String_val@U?$_Simple_types@D@std@@@std@@@2@0QEBD_K@Z", scope: !33, file: !34, line: 3484, type: !638, scopeLine: 3484, flags: DIFlagPublic | DIFlagPrototyped, spFlags: DISPFlagOptimized)
!638 = !DISubroutineType(types: !639)
!639 = !{!500, !433, !539, !539, !302, !448}
!640 = !DISubprogram(name: "replace", linkageName: "?replace@?$basic_string@DU?$char_traits@D@std@@V?$allocator@D@2@@std@@QEAAAEAV12@V?$_String_const_iterator@V?$_String_val@U?$_Simple_types@D@std@@@std@@@2@0QEBD@Z", scope: !33, file: !34, line: 3495, type: !641, scopeLine: 3495, flags: DIFlagPublic | DIFlagPrototyped, spFlags: DISPFlagOptimized)
!641 = !DISubroutineType(types: !642)
!642 = !{!500, !433, !539, !539, !302}
!643 = !DISubprogram(name: "replace", linkageName: "?replace@?$basic_string@DU?$char_traits@D@std@@V?$allocator@D@2@@std@@QEAAAEAV12@V?$_String_const_iterator@V?$_String_val@U?$_Simple_types@D@std@@@std@@@2@0_KD@Z", scope: !33, file: !34, line: 3505, type: !644, scopeLine: 3505, flags: DIFlagPublic | DIFlagPrototyped, spFlags: DISPFlagOptimized)
!644 = !DISubroutineType(types: !645)
!645 = !{!500, !433, !539, !539, !448, !32}
!646 = !DISubprogram(name: "begin", linkageName: "?begin@?$basic_string@DU?$char_traits@D@std@@V?$allocator@D@2@@std@@QEAA?AV?$_String_iterator@V?$_String_val@U?$_Simple_types@D@std@@@std@@@2@XZ", scope: !33, file: !34, line: 3569, type: !647, scopeLine: 3569, flags: DIFlagPublic | DIFlagPrototyped, spFlags: DISPFlagOptimized)
!647 = !DISubroutineType(types: !648)
!648 = !{!395, !433}
!649 = !DISubprogram(name: "begin", linkageName: "?begin@?$basic_string@DU?$char_traits@D@std@@V?$allocator@D@2@@std@@QEBA?AV?$_String_const_iterator@V?$_String_val@U?$_Simple_types@D@std@@@std@@@2@XZ", scope: !33, file: !34, line: 3573, type: !650, scopeLine: 3573, flags: DIFlagPublic | DIFlagPrototyped, spFlags: DISPFlagOptimized)
!650 = !DISubroutineType(types: !651)
!651 = !{!397, !652}
!652 = !DIDerivedType(tag: DW_TAG_pointer_type, baseType: !435, size: 64, flags: DIFlagArtificial | DIFlagObjectPointer)
!653 = !DISubprogram(name: "end", linkageName: "?end@?$basic_string@DU?$char_traits@D@std@@V?$allocator@D@2@@std@@QEAA?AV?$_String_iterator@V?$_String_val@U?$_Simple_types@D@std@@@std@@@2@XZ", scope: !33, file: !34, line: 3577, type: !647, scopeLine: 3577, flags: DIFlagPublic | DIFlagPrototyped, spFlags: DISPFlagOptimized)
!654 = !DISubprogram(name: "end", linkageName: "?end@?$basic_string@DU?$char_traits@D@std@@V?$allocator@D@2@@std@@QEBA?AV?$_String_const_iterator@V?$_String_val@U?$_Simple_types@D@std@@@std@@@2@XZ", scope: !33, file: !34, line: 3583, type: !650, scopeLine: 3583, flags: DIFlagPublic | DIFlagPrototyped, spFlags: DISPFlagOptimized)
!655 = !DISubprogram(name: "_Unchecked_begin", linkageName: "?_Unchecked_begin@?$basic_string@DU?$char_traits@D@std@@V?$allocator@D@2@@std@@QEAAPEADXZ", scope: !33, file: !34, line: 3589, type: !656, scopeLine: 3589, flags: DIFlagPublic | DIFlagPrototyped, spFlags: DISPFlagOptimized)
!656 = !DISubroutineType(types: !657)
!657 = !{!22, !433}
!658 = !DISubprogram(name: "_Unchecked_begin", linkageName: "?_Unchecked_begin@?$basic_string@DU?$char_traits@D@std@@V?$allocator@D@2@@std@@QEBAPEBDXZ", scope: !33, file: !34, line: 3593, type: !659, scopeLine: 3593, flags: DIFlagPublic | DIFlagPrototyped, spFlags: DISPFlagOptimized)
!659 = !DISubroutineType(types: !660)
!660 = !{!31, !652}
!661 = !DISubprogram(name: "_Unchecked_end", linkageName: "?_Unchecked_end@?$basic_string@DU?$char_traits@D@std@@V?$allocator@D@2@@std@@QEAAPEADXZ", scope: !33, file: !34, line: 3597, type: !656, scopeLine: 3597, flags: DIFlagPublic | DIFlagPrototyped, spFlags: DISPFlagOptimized)
!662 = !DISubprogram(name: "_Unchecked_end", linkageName: "?_Unchecked_end@?$basic_string@DU?$char_traits@D@std@@V?$allocator@D@2@@std@@QEBAPEBDXZ", scope: !33, file: !34, line: 3601, type: !659, scopeLine: 3601, flags: DIFlagPublic | DIFlagPrototyped, spFlags: DISPFlagOptimized)
!663 = !DISubprogram(name: "rbegin", linkageName: "?rbegin@?$basic_string@DU?$char_traits@D@std@@V?$allocator@D@2@@std@@QEAA?AV?$reverse_iterator@V?$_String_iterator@V?$_String_val@U?$_Simple_types@D@std@@@std@@@std@@@2@XZ", scope: !33, file: !34, line: 3605, type: !664, scopeLine: 3605, flags: DIFlagPublic | DIFlagPrototyped, spFlags: DISPFlagOptimized)
!664 = !DISubroutineType(types: !665)
!665 = !{!399, !433}
!666 = !DISubprogram(name: "rbegin", linkageName: "?rbegin@?$basic_string@DU?$char_traits@D@std@@V?$allocator@D@2@@std@@QEBA?AV?$reverse_iterator@V?$_String_const_iterator@V?$_String_val@U?$_Simple_types@D@std@@@std@@@std@@@2@XZ", scope: !33, file: !34, line: 3609, type: !667, scopeLine: 3609, flags: DIFlagPublic | DIFlagPrototyped, spFlags: DISPFlagOptimized)
!667 = !DISubroutineType(types: !668)
!668 = !{!402, !652}
!669 = !DISubprogram(name: "rend", linkageName: "?rend@?$basic_string@DU?$char_traits@D@std@@V?$allocator@D@2@@std@@QEAA?AV?$reverse_iterator@V?$_String_iterator@V?$_String_val@U?$_Simple_types@D@std@@@std@@@std@@@2@XZ", scope: !33, file: !34, line: 3613, type: !664, scopeLine: 3613, flags: DIFlagPublic | DIFlagPrototyped, spFlags: DISPFlagOptimized)
!670 = !DISubprogram(name: "rend", linkageName: "?rend@?$basic_string@DU?$char_traits@D@std@@V?$allocator@D@2@@std@@QEBA?AV?$reverse_iterator@V?$_String_const_iterator@V?$_String_val@U?$_Simple_types@D@std@@@std@@@std@@@2@XZ", scope: !33, file: !34, line: 3617, type: !667, scopeLine: 3617, flags: DIFlagPublic | DIFlagPrototyped, spFlags: DISPFlagOptimized)
!671 = !DISubprogram(name: "cbegin", linkageName: "?cbegin@?$basic_string@DU?$char_traits@D@std@@V?$allocator@D@2@@std@@QEBA?AV?$_String_const_iterator@V?$_String_val@U?$_Simple_types@D@std@@@std@@@2@XZ", scope: !33, file: !34, line: 3621, type: !650, scopeLine: 3621, flags: DIFlagPublic | DIFlagPrototyped, spFlags: DISPFlagOptimized)
!672 = !DISubprogram(name: "cend", linkageName: "?cend@?$basic_string@DU?$char_traits@D@std@@V?$allocator@D@2@@std@@QEBA?AV?$_String_const_iterator@V?$_String_val@U?$_Simple_types@D@std@@@std@@@2@XZ", scope: !33, file: !34, line: 3625, type: !650, scopeLine: 3625, flags: DIFlagPublic | DIFlagPrototyped, spFlags: DISPFlagOptimized)
!673 = !DISubprogram(name: "crbegin", linkageName: "?crbegin@?$basic_string@DU?$char_traits@D@std@@V?$allocator@D@2@@std@@QEBA?AV?$reverse_iterator@V?$_String_const_iterator@V?$_String_val@U?$_Simple_types@D@std@@@std@@@std@@@2@XZ", scope: !33, file: !34, line: 3629, type: !667, scopeLine: 3629, flags: DIFlagPublic | DIFlagPrototyped, spFlags: DISPFlagOptimized)
!674 = !DISubprogram(name: "crend", linkageName: "?crend@?$basic_string@DU?$char_traits@D@std@@V?$allocator@D@2@@std@@QEBA?AV?$reverse_iterator@V?$_String_const_iterator@V?$_String_val@U?$_Simple_types@D@std@@@std@@@std@@@2@XZ", scope: !33, file: !34, line: 3633, type: !667, scopeLine: 3633, flags: DIFlagPublic | DIFlagPrototyped, spFlags: DISPFlagOptimized)
!675 = !DISubprogram(name: "shrink_to_fit", linkageName: "?shrink_to_fit@?$basic_string@DU?$char_traits@D@std@@V?$allocator@D@2@@std@@QEAAXXZ", scope: !33, file: !34, line: 3637, type: !440, scopeLine: 3637, flags: DIFlagPublic | DIFlagPrototyped, spFlags: DISPFlagOptimized)
!676 = !DISubprogram(name: "at", linkageName: "?at@?$basic_string@DU?$char_traits@D@std@@V?$allocator@D@2@@std@@QEAAAEAD_K@Z", scope: !33, file: !34, line: 3660, type: !677, scopeLine: 3660, flags: DIFlagPublic | DIFlagPrototyped, spFlags: DISPFlagOptimized)
!677 = !DISubroutineType(types: !678)
!678 = !{!390, !433, !448}
!679 = !DISubprogram(name: "at", linkageName: "?at@?$basic_string@DU?$char_traits@D@std@@V?$allocator@D@2@@std@@QEBAAEBD_K@Z", scope: !33, file: !34, line: 3665, type: !680, scopeLine: 3665, flags: DIFlagPublic | DIFlagPrototyped, spFlags: DISPFlagOptimized)
!680 = !DISubroutineType(types: !681)
!681 = !{!392, !652, !448}
!682 = !DISubprogram(name: "operator[]", linkageName: "??A?$basic_string@DU?$char_traits@D@std@@V?$allocator@D@2@@std@@QEAAAEAD_K@Z", scope: !33, file: !34, line: 3670, type: !677, scopeLine: 3670, flags: DIFlagPublic | DIFlagPrototyped, spFlags: DISPFlagOptimized)
!683 = !DISubprogram(name: "operator[]", linkageName: "??A?$basic_string@DU?$char_traits@D@std@@V?$allocator@D@2@@std@@QEBAAEBD_K@Z", scope: !33, file: !34, line: 3677, type: !680, scopeLine: 3677, flags: DIFlagPublic | DIFlagPrototyped, spFlags: DISPFlagOptimized)
!684 = !DISubprogram(name: "push_back", linkageName: "?push_back@?$basic_string@DU?$char_traits@D@std@@V?$allocator@D@2@@std@@QEAAXD@Z", scope: !33, file: !34, line: 3691, type: !685, scopeLine: 3691, flags: DIFlagPublic | DIFlagPrototyped, spFlags: DISPFlagOptimized)
!685 = !DISubroutineType(types: !686)
!686 = !{null, !433, !32}
!687 = !DISubprogram(name: "pop_back", linkageName: "?pop_back@?$basic_string@DU?$char_traits@D@std@@V?$allocator@D@2@@std@@QEAAXXZ", scope: !33, file: !34, line: 3711, type: !440, scopeLine: 3711, flags: DIFlagPublic | DIFlagPrototyped, spFlags: DISPFlagOptimized)
!688 = !DISubprogram(name: "front", linkageName: "?front@?$basic_string@DU?$char_traits@D@std@@V?$allocator@D@2@@std@@QEAAAEADXZ", scope: !33, file: !34, line: 3719, type: !689, scopeLine: 3719, flags: DIFlagPublic | DIFlagPrototyped, spFlags: DISPFlagOptimized)
!689 = !DISubroutineType(types: !690)
!690 = !{!390, !433}
!691 = !DISubprogram(name: "front", linkageName: "?front@?$basic_string@DU?$char_traits@D@std@@V?$allocator@D@2@@std@@QEBAAEBDXZ", scope: !33, file: !34, line: 3727, type: !692, scopeLine: 3727, flags: DIFlagPublic | DIFlagPrototyped, spFlags: DISPFlagOptimized)
!692 = !DISubroutineType(types: !693)
!693 = !{!392, !652}
!694 = !DISubprogram(name: "back", linkageName: "?back@?$basic_string@DU?$char_traits@D@std@@V?$allocator@D@2@@std@@QEAAAEADXZ", scope: !33, file: !34, line: 3735, type: !689, scopeLine: 3735, flags: DIFlagPublic | DIFlagPrototyped, spFlags: DISPFlagOptimized)
!695 = !DISubprogram(name: "back", linkageName: "?back@?$basic_string@DU?$char_traits@D@std@@V?$allocator@D@2@@std@@QEBAAEBDXZ", scope: !33, file: !34, line: 3743, type: !692, scopeLine: 3743, flags: DIFlagPublic | DIFlagPrototyped, spFlags: DISPFlagOptimized)
!696 = !DISubprogram(name: "c_str", linkageName: "?c_str@?$basic_string@DU?$char_traits@D@std@@V?$allocator@D@2@@std@@QEBAPEBDXZ", scope: !33, file: !34, line: 3751, type: !659, scopeLine: 3751, flags: DIFlagPublic | DIFlagPrototyped, spFlags: DISPFlagOptimized)
!697 = !DISubprogram(name: "data", linkageName: "?data@?$basic_string@DU?$char_traits@D@std@@V?$allocator@D@2@@std@@QEBAPEBDXZ", scope: !33, file: !34, line: 3755, type: !659, scopeLine: 3755, flags: DIFlagPublic | DIFlagPrototyped, spFlags: DISPFlagOptimized)
!698 = !DISubprogram(name: "length", linkageName: "?length@?$basic_string@DU?$char_traits@D@std@@V?$allocator@D@2@@std@@QEBA_KXZ", scope: !33, file: !34, line: 3765, type: !699, scopeLine: 3765, flags: DIFlagPublic | DIFlagPrototyped, spFlags: DISPFlagOptimized)
!699 = !DISubroutineType(types: !700)
!700 = !{!386, !652}
!701 = !DISubprogram(name: "size", linkageName: "?size@?$basic_string@DU?$char_traits@D@std@@V?$allocator@D@2@@std@@QEBA_KXZ", scope: !33, file: !34, line: 3769, type: !699, scopeLine: 3769, flags: DIFlagPublic | DIFlagPrototyped, spFlags: DISPFlagOptimized)
!702 = !DISubprogram(name: "max_size", linkageName: "?max_size@?$basic_string@DU?$char_traits@D@std@@V?$allocator@D@2@@std@@QEBA_KXZ", scope: !33, file: !34, line: 3773, type: !699, scopeLine: 3773, flags: DIFlagPublic | DIFlagPrototyped, spFlags: DISPFlagOptimized)
!703 = !DISubprogram(name: "resize", linkageName: "?resize@?$basic_string@DU?$char_traits@D@std@@V?$allocator@D@2@@std@@QEAAX_KD@Z", scope: !33, file: !34, line: 3782, type: !465, scopeLine: 3782, flags: DIFlagPublic | DIFlagPrototyped, spFlags: DISPFlagOptimized)
!704 = !DISubprogram(name: "capacity", linkageName: "?capacity@?$basic_string@DU?$char_traits@D@std@@V?$allocator@D@2@@std@@QEBA_KXZ", scope: !33, file: !34, line: 3792, type: !699, scopeLine: 3792, flags: DIFlagPublic | DIFlagPrototyped, spFlags: DISPFlagOptimized)
!705 = !DISubprogram(name: "reserve", linkageName: "?reserve@?$basic_string@DU?$char_traits@D@std@@V?$allocator@D@2@@std@@QEAAX_K@Z", scope: !33, file: !34, line: 3817, type: !706, scopeLine: 3817, flags: DIFlagPublic | DIFlagPrototyped, spFlags: DISPFlagOptimized)
!706 = !DISubroutineType(types: !707)
!707 = !{null, !433, !448}
!708 = !DISubprogram(name: "empty", linkageName: "?empty@?$basic_string@DU?$char_traits@D@std@@V?$allocator@D@2@@std@@QEBA_NXZ", scope: !33, file: !34, line: 3847, type: !709, scopeLine: 3847, flags: DIFlagPublic | DIFlagPrototyped, spFlags: DISPFlagOptimized)
!709 = !DISubroutineType(types: !710)
!710 = !{!65, !652}
!711 = !DISubprogram(name: "copy", linkageName: "?copy@?$basic_string@DU?$char_traits@D@std@@V?$allocator@D@2@@std@@QEBA_KQEAD_K_K@Z", scope: !33, file: !34, line: 3851, type: !712, scopeLine: 3851, flags: DIFlagPublic | DIFlagPrototyped, spFlags: DISPFlagOptimized)
!712 = !DISubroutineType(types: !713)
!713 = !{!386, !652, !97, !386, !448}
!714 = !DISubprogram(name: "_Copy_s", linkageName: "?_Copy_s@?$basic_string@DU?$char_traits@D@std@@V?$allocator@D@2@@std@@QEBA_KQEAD_K_K1@Z", scope: !33, file: !34, line: 3859, type: !715, scopeLine: 3859, flags: DIFlagPublic | DIFlagPrototyped, spFlags: DISPFlagOptimized)
!715 = !DISubroutineType(types: !716)
!716 = !{!386, !652, !97, !448, !386, !448}
!717 = !DISubprogram(name: "_Swap_data", linkageName: "?_Swap_data@?$basic_string@DU?$char_traits@D@std@@V?$allocator@D@2@@std@@QEAAXAEAV12@U?$integral_constant@_N$00@2@@Z", scope: !33, file: !34, line: 3868, type: !519, scopeLine: 3868, flags: DIFlagPublic | DIFlagPrototyped, spFlags: DISPFlagOptimized)
!718 = !DISubprogram(name: "_Swap_bx_large_with_small", linkageName: "?_Swap_bx_large_with_small@?$basic_string@DU?$char_traits@D@std@@V?$allocator@D@2@@std@@QEAAXAEAV?$_String_val@U?$_Simple_types@D@std@@@2@0@Z", scope: !33, file: !34, line: 3880, type: !719, scopeLine: 3880, flags: DIFlagPublic | DIFlagPrototyped, spFlags: DISPFlagOptimized)
!719 = !DISubroutineType(types: !720)
!720 = !{null, !433, !721, !721}
!721 = !DIDerivedType(tag: DW_TAG_reference_type, baseType: !176, size: 64)
!722 = !DISubprogram(name: "_Swap_data", linkageName: "?_Swap_data@?$basic_string@DU?$char_traits@D@std@@V?$allocator@D@2@@std@@QEAAXAEAV12@U?$integral_constant@_N$0A@@2@@Z", scope: !33, file: !34, line: 3888, type: !522, scopeLine: 3888, flags: DIFlagPublic | DIFlagPrototyped, spFlags: DISPFlagOptimized)
!723 = !DISubprogram(name: "swap", linkageName: "?swap@?$basic_string@DU?$char_traits@D@std@@V?$allocator@D@2@@std@@QEAAXAEAV12@@Z", scope: !33, file: !34, line: 3915, type: !724, scopeLine: 3915, flags: DIFlagPublic | DIFlagPrototyped, spFlags: DISPFlagOptimized)
!724 = !DISubroutineType(types: !725)
!725 = !{null, !433, !500}
!726 = !DISubprogram(name: "find", linkageName: "?find@?$basic_string@DU?$char_traits@D@std@@V?$allocator@D@2@@std@@QEBA_KAEBV12@_K@Z", scope: !33, file: !34, line: 3949, type: !727, scopeLine: 3949, flags: DIFlagPublic | DIFlagPrototyped, spFlags: DISPFlagOptimized)
!727 = !DISubroutineType(types: !728)
!728 = !{!386, !652, !434, !448}
!729 = !DISubprogram(name: "find", linkageName: "?find@?$basic_string@DU?$char_traits@D@std@@V?$allocator@D@2@@std@@QEBA_KQEBD_K1@Z", scope: !33, file: !34, line: 3955, type: !730, scopeLine: 3955, flags: DIFlagPublic | DIFlagPrototyped, spFlags: DISPFlagOptimized)
!730 = !DISubroutineType(types: !731)
!731 = !{!386, !652, !302, !448, !448}
!732 = !DISubprogram(name: "find", linkageName: "?find@?$basic_string@DU?$char_traits@D@std@@V?$allocator@D@2@@std@@QEBA_KQEBD_K@Z", scope: !33, file: !34, line: 3962, type: !733, scopeLine: 3962, flags: DIFlagPublic | DIFlagPrototyped, spFlags: DISPFlagOptimized)
!733 = !DISubroutineType(types: !734)
!734 = !{!386, !652, !302, !448}
!735 = !DISubprogram(name: "find", linkageName: "?find@?$basic_string@DU?$char_traits@D@std@@V?$allocator@D@2@@std@@QEBA_KD_K@Z", scope: !33, file: !34, line: 3969, type: !736, scopeLine: 3969, flags: DIFlagPublic | DIFlagPrototyped, spFlags: DISPFlagOptimized)
!736 = !DISubroutineType(types: !737)
!737 = !{!386, !652, !32, !448}
!738 = !DISubprogram(name: "rfind", linkageName: "?rfind@?$basic_string@DU?$char_traits@D@std@@V?$allocator@D@2@@std@@QEBA_KAEBV12@_K@Z", scope: !33, file: !34, line: 3985, type: !727, scopeLine: 3985, flags: DIFlagPublic | DIFlagPrototyped, spFlags: DISPFlagOptimized)
!739 = !DISubprogram(name: "rfind", linkageName: "?rfind@?$basic_string@DU?$char_traits@D@std@@V?$allocator@D@2@@std@@QEBA_KQEBD_K1@Z", scope: !33, file: !34, line: 3991, type: !730, scopeLine: 3991, flags: DIFlagPublic | DIFlagPrototyped, spFlags: DISPFlagOptimized)
!740 = !DISubprogram(name: "rfind", linkageName: "?rfind@?$basic_string@DU?$char_traits@D@std@@V?$allocator@D@2@@std@@QEBA_KQEBD_K@Z", scope: !33, file: !34, line: 3998, type: !733, scopeLine: 3998, flags: DIFlagPublic | DIFlagPrototyped, spFlags: DISPFlagOptimized)
!741 = !DISubprogram(name: "rfind", linkageName: "?rfind@?$basic_string@DU?$char_traits@D@std@@V?$allocator@D@2@@std@@QEBA_KD_K@Z", scope: !33, file: !34, line: 4005, type: !736, scopeLine: 4005, flags: DIFlagPublic | DIFlagPrototyped, spFlags: DISPFlagOptimized)
!742 = !DISubprogram(name: "find_first_of", linkageName: "?find_first_of@?$basic_string@DU?$char_traits@D@std@@V?$allocator@D@2@@std@@QEBA_KAEBV12@_K@Z", scope: !33, file: !34, line: 4021, type: !727, scopeLine: 4021, flags: DIFlagPublic | DIFlagPrototyped, spFlags: DISPFlagOptimized)
!743 = !DISubprogram(name: "find_first_of", linkageName: "?find_first_of@?$basic_string@DU?$char_traits@D@std@@V?$allocator@D@2@@std@@QEBA_KQEBD_K1@Z", scope: !33, file: !34, line: 4028, type: !730, scopeLine: 4028, flags: DIFlagPublic | DIFlagPrototyped, spFlags: DISPFlagOptimized)
!744 = !DISubprogram(name: "find_first_of", linkageName: "?find_first_of@?$basic_string@DU?$char_traits@D@std@@V?$allocator@D@2@@std@@QEBA_KQEBD_K@Z", scope: !33, file: !34, line: 4035, type: !733, scopeLine: 4035, flags: DIFlagPublic | DIFlagPrototyped, spFlags: DISPFlagOptimized)
!745 = !DISubprogram(name: "find_first_of", linkageName: "?find_first_of@?$basic_string@DU?$char_traits@D@std@@V?$allocator@D@2@@std@@QEBA_KD_K@Z", scope: !33, file: !34, line: 4042, type: !736, scopeLine: 4042, flags: DIFlagPublic | DIFlagPrototyped, spFlags: DISPFlagOptimized)
!746 = !DISubprogram(name: "find_last_of", linkageName: "?find_last_of@?$basic_string@DU?$char_traits@D@std@@V?$allocator@D@2@@std@@QEBA_KAEBV12@_K@Z", scope: !33, file: !34, line: 4058, type: !747, scopeLine: 4058, flags: DIFlagPublic | DIFlagPrototyped, spFlags: DISPFlagOptimized)
!747 = !DISubroutineType(types: !748)
!748 = !{!386, !652, !434, !386}
!749 = !DISubprogram(name: "find_last_of", linkageName: "?find_last_of@?$basic_string@DU?$char_traits@D@std@@V?$allocator@D@2@@std@@QEBA_KQEBD_K1@Z", scope: !33, file: !34, line: 4065, type: !730, scopeLine: 4065, flags: DIFlagPublic | DIFlagPrototyped, spFlags: DISPFlagOptimized)
!750 = !DISubprogram(name: "find_last_of", linkageName: "?find_last_of@?$basic_string@DU?$char_traits@D@std@@V?$allocator@D@2@@std@@QEBA_KQEBD_K@Z", scope: !33, file: !34, line: 4072, type: !733, scopeLine: 4072, flags: DIFlagPublic | DIFlagPrototyped, spFlags: DISPFlagOptimized)
!751 = !DISubprogram(name: "find_last_of", linkageName: "?find_last_of@?$basic_string@DU?$char_traits@D@std@@V?$allocator@D@2@@std@@QEBA_KD_K@Z", scope: !33, file: !34, line: 4079, type: !736, scopeLine: 4079, flags: DIFlagPublic | DIFlagPrototyped, spFlags: DISPFlagOptimized)
!752 = !DISubprogram(name: "find_first_not_of", linkageName: "?find_first_not_of@?$basic_string@DU?$char_traits@D@std@@V?$allocator@D@2@@std@@QEBA_KAEBV12@_K@Z", scope: !33, file: !34, line: 4096, type: !727, scopeLine: 4096, flags: DIFlagPublic | DIFlagPrototyped, spFlags: DISPFlagOptimized)
!753 = !DISubprogram(name: "find_first_not_of", linkageName: "?find_first_not_of@?$basic_string@DU?$char_traits@D@std@@V?$allocator@D@2@@std@@QEBA_KQEBD_K1@Z", scope: !33, file: !34, line: 4103, type: !730, scopeLine: 4103, flags: DIFlagPublic | DIFlagPrototyped, spFlags: DISPFlagOptimized)
!754 = !DISubprogram(name: "find_first_not_of", linkageName: "?find_first_not_of@?$basic_string@DU?$char_traits@D@std@@V?$allocator@D@2@@std@@QEBA_KQEBD_K@Z", scope: !33, file: !34, line: 4110, type: !755, scopeLine: 4110, flags: DIFlagPublic | DIFlagPrototyped, spFlags: DISPFlagOptimized)
!755 = !DISubroutineType(types: !756)
!756 = !{!386, !652, !302, !386}
!757 = !DISubprogram(name: "find_first_not_of", linkageName: "?find_first_not_of@?$basic_string@DU?$char_traits@D@std@@V?$allocator@D@2@@std@@QEBA_KD_K@Z", scope: !33, file: !34, line: 4117, type: !736, scopeLine: 4117, flags: DIFlagPublic | DIFlagPrototyped, spFlags: DISPFlagOptimized)
!758 = !DISubprogram(name: "find_last_not_of", linkageName: "?find_last_not_of@?$basic_string@DU?$char_traits@D@std@@V?$allocator@D@2@@std@@QEBA_KAEBV12@_K@Z", scope: !33, file: !34, line: 4135, type: !727, scopeLine: 4135, flags: DIFlagPublic | DIFlagPrototyped, spFlags: DISPFlagOptimized)
!759 = !DISubprogram(name: "find_last_not_of", linkageName: "?find_last_not_of@?$basic_string@DU?$char_traits@D@std@@V?$allocator@D@2@@std@@QEBA_KQEBD_K1@Z", scope: !33, file: !34, line: 4142, type: !730, scopeLine: 4142, flags: DIFlagPublic | DIFlagPrototyped, spFlags: DISPFlagOptimized)
!760 = !DISubprogram(name: "find_last_not_of", linkageName: "?find_last_not_of@?$basic_string@DU?$char_traits@D@std@@V?$allocator@D@2@@std@@QEBA_KQEBD_K@Z", scope: !33, file: !34, line: 4149, type: !733, scopeLine: 4149, flags: DIFlagPublic | DIFlagPrototyped, spFlags: DISPFlagOptimized)
!761 = !DISubprogram(name: "find_last_not_of", linkageName: "?find_last_not_of@?$basic_string@DU?$char_traits@D@std@@V?$allocator@D@2@@std@@QEBA_KD_K@Z", scope: !33, file: !34, line: 4156, type: !736, scopeLine: 4156, flags: DIFlagPublic | DIFlagPrototyped, spFlags: DISPFlagOptimized)
!762 = !DISubprogram(name: "substr", linkageName: "?substr@?$basic_string@DU?$char_traits@D@std@@V?$allocator@D@2@@std@@QEBA?AV12@_K0@Z", scope: !33, file: !34, line: 4169, type: !763, scopeLine: 4169, flags: DIFlagPublic | DIFlagPrototyped, spFlags: DISPFlagOptimized)
!763 = !DISubroutineType(types: !764)
!764 = !{!33, !652, !448, !448}
!765 = !DISubprogram(name: "_Equal", linkageName: "?_Equal@?$basic_string@DU?$char_traits@D@std@@V?$allocator@D@2@@std@@QEBA_NAEBV12@@Z", scope: !33, file: !34, line: 4174, type: !766, scopeLine: 4174, flags: DIFlagPublic | DIFlagPrototyped, spFlags: DISPFlagOptimized)
!766 = !DISubroutineType(types: !767)
!767 = !{!65, !652, !434}
!768 = !DISubprogram(name: "_Equal", linkageName: "?_Equal@?$basic_string@DU?$char_traits@D@std@@V?$allocator@D@2@@std@@QEBA_NQEBD@Z", scope: !33, file: !34, line: 4179, type: !769, scopeLine: 4179, flags: DIFlagPublic | DIFlagPrototyped, spFlags: DISPFlagOptimized)
!769 = !DISubroutineType(types: !770)
!770 = !{!65, !652, !302}
!771 = !DISubprogram(name: "compare", linkageName: "?compare@?$basic_string@DU?$char_traits@D@std@@V?$allocator@D@2@@std@@QEBAHAEBV12@@Z", scope: !33, file: !34, line: 4212, type: !772, scopeLine: 4212, flags: DIFlagPublic | DIFlagPrototyped, spFlags: DISPFlagOptimized)
!772 = !DISubroutineType(types: !773)
!773 = !{!6, !652, !434}
!774 = !DISubprogram(name: "compare", linkageName: "?compare@?$basic_string@DU?$char_traits@D@std@@V?$allocator@D@2@@std@@QEBAH_K0AEBV12@@Z", scope: !33, file: !34, line: 4217, type: !775, scopeLine: 4217, flags: DIFlagPublic | DIFlagPrototyped, spFlags: DISPFlagOptimized)
!775 = !DISubroutineType(types: !776)
!776 = !{!6, !652, !386, !386, !434}
!777 = !DISubprogram(name: "compare", linkageName: "?compare@?$basic_string@DU?$char_traits@D@std@@V?$allocator@D@2@@std@@QEBAH_K0AEBV12@00@Z", scope: !33, file: !34, line: 4224, type: !778, scopeLine: 4224, flags: DIFlagPublic | DIFlagPrototyped, spFlags: DISPFlagOptimized)
!778 = !DISubroutineType(types: !779)
!779 = !{!6, !652, !448, !448, !434, !448, !448}
!780 = !DISubprogram(name: "compare", linkageName: "?compare@?$basic_string@DU?$char_traits@D@std@@V?$allocator@D@2@@std@@QEBAHQEBD@Z", scope: !33, file: !34, line: 4233, type: !781, scopeLine: 4233, flags: DIFlagPublic | DIFlagPrototyped, spFlags: DISPFlagOptimized)
!781 = !DISubroutineType(types: !782)
!782 = !{!6, !652, !302}
!783 = !DISubprogram(name: "compare", linkageName: "?compare@?$basic_string@DU?$char_traits@D@std@@V?$allocator@D@2@@std@@QEBAH_K0QEBD@Z", scope: !33, file: !34, line: 4238, type: !784, scopeLine: 4238, flags: DIFlagPublic | DIFlagPrototyped, spFlags: DISPFlagOptimized)
!784 = !DISubroutineType(types: !785)
!785 = !{!6, !652, !448, !448, !302}
!786 = !DISubprogram(name: "compare", linkageName: "?compare@?$basic_string@DU?$char_traits@D@std@@V?$allocator@D@2@@std@@QEBAH_K0QEBD0@Z", scope: !33, file: !34, line: 4245, type: !787, scopeLine: 4245, flags: DIFlagPublic | DIFlagPrototyped, spFlags: DISPFlagOptimized)
!787 = !DISubroutineType(types: !788)
!788 = !{!6, !652, !448, !448, !302, !448}
!789 = !DISubprogram(name: "get_allocator", linkageName: "?get_allocator@?$basic_string@DU?$char_traits@D@std@@V?$allocator@D@2@@std@@QEBA?AV?$allocator@D@2@XZ", scope: !33, file: !34, line: 4278, type: !790, scopeLine: 4278, flags: DIFlagPublic | DIFlagPrototyped, spFlags: DISPFlagOptimized)
!790 = !DISubroutineType(types: !791)
!791 = !{!384, !652}
!792 = !DISubprogram(name: "_Calculate_growth", linkageName: "?_Calculate_growth@?$basic_string@DU?$char_traits@D@std@@V?$allocator@D@2@@std@@CA_K_K00@Z", scope: !33, file: !34, line: 4283, type: !793, scopeLine: 4283, flags: DIFlagPrototyped | DIFlagStaticMember, spFlags: DISPFlagOptimized)
!793 = !DISubroutineType(types: !794)
!794 = !{!386, !448, !448, !448}
!795 = !DISubprogram(name: "_Calculate_growth", linkageName: "?_Calculate_growth@?$basic_string@DU?$char_traits@D@std@@V?$allocator@D@2@@std@@AEBA_K_K@Z", scope: !33, file: !34, line: 4297, type: !796, scopeLine: 4297, flags: DIFlagPrototyped, spFlags: DISPFlagOptimized)
!796 = !DISubroutineType(types: !797)
!797 = !{!386, !652, !448}
!798 = !DISubprogram(name: "_Become_small", linkageName: "?_Become_small@?$basic_string@DU?$char_traits@D@std@@V?$allocator@D@2@@std@@AEAAXXZ", scope: !33, file: !34, line: 4359, type: !440, scopeLine: 4359, flags: DIFlagPrototyped, spFlags: DISPFlagOptimized)
!799 = !DISubprogram(name: "_Eos", linkageName: "?_Eos@?$basic_string@DU?$char_traits@D@std@@V?$allocator@D@2@@std@@AEAAX_K@Z", scope: !33, file: !34, line: 4372, type: !706, scopeLine: 4372, flags: DIFlagPrototyped, spFlags: DISPFlagOptimized)
!800 = !DISubprogram(name: "_Tidy_init", linkageName: "?_Tidy_init@?$basic_string@DU?$char_traits@D@std@@V?$allocator@D@2@@std@@AEAAXXZ", scope: !33, file: !34, line: 4376, type: !440, scopeLine: 4376, flags: DIFlagPrototyped, spFlags: DISPFlagOptimized)
!801 = !DISubprogram(name: "_Tidy_deallocate", linkageName: "?_Tidy_deallocate@?$basic_string@DU?$char_traits@D@std@@V?$allocator@D@2@@std@@AEAAXXZ", scope: !33, file: !34, line: 4383, type: !440, scopeLine: 4383, flags: DIFlagPrototyped, spFlags: DISPFlagOptimized)
!802 = !DISubprogram(name: "_Orphan_all", linkageName: "?_Orphan_all@?$basic_string@DU?$char_traits@D@std@@V?$allocator@D@2@@std@@QEAAXXZ", scope: !33, file: !34, line: 4399, type: !440, scopeLine: 4399, flags: DIFlagPublic | DIFlagPrototyped, spFlags: DISPFlagOptimized)
!803 = !DISubprogram(name: "_Swap_proxy_and_iterators", linkageName: "?_Swap_proxy_and_iterators@?$basic_string@DU?$char_traits@D@std@@V?$allocator@D@2@@std@@AEAAXAEAV12@@Z", scope: !33, file: !34, line: 4404, type: !724, scopeLine: 4404, flags: DIFlagPrototyped, spFlags: DISPFlagOptimized)
!804 = !DISubprogram(name: "_Getal", linkageName: "?_Getal@?$basic_string@DU?$char_traits@D@std@@V?$allocator@D@2@@std@@AEAAAEAV?$allocator@D@2@XZ", scope: !33, file: !34, line: 4408, type: !805, scopeLine: 4408, flags: DIFlagPrototyped, spFlags: DISPFlagOptimized)
!805 = !DISubroutineType(types: !806)
!806 = !{!807, !433}
!807 = !DIDerivedType(tag: DW_TAG_reference_type, baseType: !36, size: 64)
!808 = !DISubprogram(name: "_Getal", linkageName: "?_Getal@?$basic_string@DU?$char_traits@D@std@@V?$allocator@D@2@@std@@AEBAAEBV?$allocator@D@2@XZ", scope: !33, file: !34, line: 4412, type: !809, scopeLine: 4412, flags: DIFlagPrototyped, spFlags: DISPFlagOptimized)
!809 = !DISubroutineType(types: !810)
!810 = !{!811, !652}
!811 = !DIDerivedType(tag: DW_TAG_reference_type, baseType: !812, size: 64)
!812 = !DIDerivedType(tag: DW_TAG_const_type, baseType: !36)
!813 = !{!344, !814, !162}
!814 = !DITemplateTypeParameter(name: "_Traits", type: !273)
!815 = !{!816, !818, !820}
!816 = !DIGlobalVariableExpression(var: !817, expr: !DIExpression(DW_OP_constu, 4096, DW_OP_stack_value))
!817 = distinct !DIGlobalVariable(name: "_Big_allocation_threshold", scope: !5, file: !38, line: 92, type: !98, isLocal: true, isDefinition: true)
!818 = !DIGlobalVariableExpression(var: !819, expr: !DIExpression(DW_OP_constu, 39, DW_OP_stack_value))
!819 = distinct !DIGlobalVariable(name: "_Non_user_size", scope: !5, file: !38, line: 102, type: !98, isLocal: true, isDefinition: true)
!820 = !DIGlobalVariableExpression(var: !821, expr: !DIExpression(DW_OP_constu, 32, DW_OP_stack_value))
!821 = distinct !DIGlobalVariable(name: "_Big_allocation_alignment", scope: !5, file: !38, line: 93, type: !98, isLocal: true, isDefinition: true)
!822 = !{!823, !828, !829, !832, !835, !836, !841, !845, !847, !849, !851, !853, !858, !862, !866, !871, !875, !879, !883, !887, !889, !894, !900, !904, !908, !910, !914, !918, !920, !924, !928, !932, !934, !938, !940, !942, !946, !950, !954, !958, !962, !966, !968, !973, !977, !981, !986, !990, !992, !994, !998, !1000, !1005, !1010, !1014, !1016, !1018, !1023, !1028, !1030, !1032, !1034, !1038, !1042, !1046, !1050, !1054, !1056, !1060, !1062, !1064, !1066, !1068, !1072, !1074, !1075, !1076, !1079, !1081, !1086, !1090, !1096, !1100, !1106, !1110, !1115, !1117, !1119, !1123, !1128, !1132, !1137, !1143, !1145, !1149, !1154, !1158, !1162, !1166, !1170, !1174, !1178, !1182, !1184, !1189, !1195, !1200, !1204, !1208, !1210, !1212, !1216, !1220, !1224, !1228, !1230, !1232, !1234, !1236, !1241, !1245, !1247, !1249, !1253, !1257, !1261, !1263, !1265, !1267, !1269, !1275, !1277, !1281, !1283, !1288, !1293, !1297, !1301, !1304, !1306, !1307, !1309, !1311, !1315, !1321, !1323, !1327, !1332, !1336, !1338, !1342, !1351, !1356, !1366, !1370, !1374, !1378, !1382, !1386, !1390, !1394, !1398, !1402, !1404, !1408, !1413, !1418, !1422, !1426, !1430, !1434, !1435, !1439, !1441, !1445, !1449, !1453, !1457, !1461, !1465, !1469, !1471, !1473, !1475, !1480, !1483, !1485, !1487, !1490, !1492, !1494, !1496, !1498, !1500, !1502, !1504, !1506, !1508, !1510, !1512, !1514, !1516, !1518, !1520, !1522, !1524, !1526, !1528, !1530, !1532, !1534, !1535, !1537, !1538, !1539, !1540, !1541, !1542, !1543, !1544, !1545, !1546, !1547, !1548, !1549, !1550, !1551, !1552, !1553, !1554, !1555, !1556, !1557, !1558, !1559, !1560, !1561, !1562, !1563, !1564, !1566, !1567, !1571, !1576, !1577, !1580, !1585, !1586, !1590, !1592, !1594, !1596, !1598, !1600, !1602, !1604, !1606, !1608, !1610, !1612, !1614}
!823 = !DIImportedEntity(tag: DW_TAG_imported_declaration, scope: !5, entity: !824, file: !827, line: 37)
!824 = !DIDerivedType(tag: DW_TAG_typedef, name: "FILE", file: !825, line: 31, baseType: !826)
!825 = !DIFile(filename: "C:\\Program Files (x86)\\Windows Kits\\10\\Include\\10.0.19041.0\\ucrt\\corecrt_wstdio.h", directory: "", checksumkind: CSK_MD5, checksum: "bf50373b435d0afd0235dd3e05c4a277")
!826 = !DICompositeType(tag: DW_TAG_structure_type, name: "_iobuf", file: !825, line: 28, size: 64, flags: DIFlagFwdDecl, identifier: ".?AU_iobuf@@")
!827 = !DIFile(filename: "C:\\Program Files (x86)\\Microsoft Visual Studio\\2019\\Community\\VC\\Tools\\MSVC\\14.28.29910\\include\\cstdio", directory: "", checksumkind: CSK_MD5, checksum: "c450e3bb97b2af18a3a83f1f772c2644")
!828 = !DIImportedEntity(tag: DW_TAG_imported_declaration, scope: !5, entity: !290, file: !827, line: 38)
!829 = !DIImportedEntity(tag: DW_TAG_imported_declaration, scope: !5, entity: !830, file: !827, line: 40)
!830 = !DIDerivedType(tag: DW_TAG_typedef, name: "size_t", file: !831, line: 193, baseType: !21)
!831 = !DIFile(filename: "C:\\Program Files (x86)\\Microsoft Visual Studio\\2019\\Community\\VC\\Tools\\MSVC\\14.28.29910\\include\\vcruntime.h", directory: "", checksumkind: CSK_MD5, checksum: "1147c94afb6f25c377433eef20bc3e8f")
!832 = !DIImportedEntity(tag: DW_TAG_imported_declaration, scope: !5, entity: !833, file: !827, line: 41)
!833 = !DIDerivedType(tag: DW_TAG_typedef, name: "fpos_t", file: !834, line: 73, baseType: !56)
!834 = !DIFile(filename: "C:\\Program Files (x86)\\Windows Kits\\10\\Include\\10.0.19041.0\\ucrt\\stdio.h", directory: "", checksumkind: CSK_MD5, checksum: "c1a1fbc43e7d45f0ea4ae539ddcffb19")
!835 = !DIImportedEntity(tag: DW_TAG_imported_declaration, scope: !5, entity: !824, file: !827, line: 42)
!836 = !DIImportedEntity(tag: DW_TAG_imported_declaration, scope: !5, entity: !837, file: !827, line: 43)
!837 = !DISubprogram(name: "clearerr", scope: !834, file: !834, line: 146, type: !838, flags: DIFlagPrototyped, spFlags: DISPFlagOptimized)
!838 = !DISubroutineType(types: !839)
!839 = !{null, !840}
!840 = !DIDerivedType(tag: DW_TAG_pointer_type, baseType: !824, size: 64)
!841 = !DIImportedEntity(tag: DW_TAG_imported_declaration, scope: !5, entity: !842, file: !827, line: 44)
!842 = !DISubprogram(name: "fclose", scope: !834, file: !834, line: 152, type: !843, flags: DIFlagPrototyped, spFlags: DISPFlagOptimized)
!843 = !DISubroutineType(types: !844)
!844 = !{!6, !840}
!845 = !DIImportedEntity(tag: DW_TAG_imported_declaration, scope: !5, entity: !846, file: !827, line: 45)
!846 = !DISubprogram(name: "feof", scope: !834, file: !834, line: 166, type: !843, flags: DIFlagPrototyped, spFlags: DISPFlagOptimized)
!847 = !DIImportedEntity(tag: DW_TAG_imported_declaration, scope: !5, entity: !848, file: !827, line: 46)
!848 = !DISubprogram(name: "ferror", scope: !834, file: !834, line: 171, type: !843, flags: DIFlagPrototyped, spFlags: DISPFlagOptimized)
!849 = !DIImportedEntity(tag: DW_TAG_imported_declaration, scope: !5, entity: !850, file: !827, line: 47)
!850 = !DISubprogram(name: "fflush", scope: !834, file: !834, line: 176, type: !843, flags: DIFlagPrototyped, spFlags: DISPFlagOptimized)
!851 = !DIImportedEntity(tag: DW_TAG_imported_declaration, scope: !5, entity: !852, file: !827, line: 48)
!852 = !DISubprogram(name: "fgetc", scope: !834, file: !834, line: 182, type: !843, flags: DIFlagPrototyped, spFlags: DISPFlagOptimized)
!853 = !DIImportedEntity(tag: DW_TAG_imported_declaration, scope: !5, entity: !854, file: !827, line: 49)
!854 = !DISubprogram(name: "fgetpos", scope: !834, file: !834, line: 191, type: !855, flags: DIFlagPrototyped, spFlags: DISPFlagOptimized)
!855 = !DISubroutineType(types: !856)
!856 = !{!6, !840, !857}
!857 = !DIDerivedType(tag: DW_TAG_pointer_type, baseType: !833, size: 64)
!858 = !DIImportedEntity(tag: DW_TAG_imported_declaration, scope: !5, entity: !859, file: !827, line: 50)
!859 = !DISubprogram(name: "fgets", scope: !834, file: !834, line: 198, type: !860, flags: DIFlagPrototyped, spFlags: DISPFlagOptimized)
!860 = !DISubroutineType(types: !861)
!861 = !{!22, !22, !6, !840}
!862 = !DIImportedEntity(tag: DW_TAG_imported_declaration, scope: !5, entity: !863, file: !827, line: 51)
!863 = !DISubprogram(name: "fopen", scope: !834, file: !834, line: 213, type: !864, flags: DIFlagPrototyped, spFlags: DISPFlagOptimized)
!864 = !DISubroutineType(types: !865)
!865 = !{!840, !31, !31}
!866 = !DIImportedEntity(tag: DW_TAG_imported_declaration, scope: !5, entity: !867, file: !827, line: 52)
!867 = !DISubprogram(name: "fprintf", scope: !834, file: !834, line: 830, type: !868, flags: DIFlagPrototyped, spFlags: DISPFlagOptimized)
!868 = !DISubroutineType(types: !869)
!869 = !{!6, !870, !302, null}
!870 = !DIDerivedType(tag: DW_TAG_const_type, baseType: !840)
!871 = !DIImportedEntity(tag: DW_TAG_imported_declaration, scope: !5, entity: !872, file: !827, line: 53)
!872 = !DISubprogram(name: "fputc", scope: !834, file: !834, line: 221, type: !873, flags: DIFlagPrototyped, spFlags: DISPFlagOptimized)
!873 = !DISubroutineType(types: !874)
!874 = !{!6, !6, !840}
!875 = !DIImportedEntity(tag: DW_TAG_imported_declaration, scope: !5, entity: !876, file: !827, line: 54)
!876 = !DISubprogram(name: "fputs", scope: !834, file: !834, line: 233, type: !877, flags: DIFlagPrototyped, spFlags: DISPFlagOptimized)
!877 = !DISubroutineType(types: !878)
!878 = !{!6, !31, !840}
!879 = !DIImportedEntity(tag: DW_TAG_imported_declaration, scope: !5, entity: !880, file: !827, line: 55)
!880 = !DISubprogram(name: "fread", scope: !834, file: !834, line: 239, type: !881, flags: DIFlagPrototyped, spFlags: DISPFlagOptimized)
!881 = !DISubroutineType(types: !882)
!882 = !{!830, !26, !830, !830, !840}
!883 = !DIImportedEntity(tag: DW_TAG_imported_declaration, scope: !5, entity: !884, file: !827, line: 56)
!884 = !DISubprogram(name: "freopen", scope: !834, file: !834, line: 248, type: !885, flags: DIFlagPrototyped, spFlags: DISPFlagOptimized)
!885 = !DISubroutineType(types: !886)
!886 = !{!840, !31, !31, !840}
!887 = !DIImportedEntity(tag: DW_TAG_imported_declaration, scope: !5, entity: !888, file: !827, line: 57)
!888 = !DISubprogram(name: "fscanf", scope: !834, file: !834, line: 1199, type: !868, flags: DIFlagPrototyped, spFlags: DISPFlagOptimized)
!889 = !DIImportedEntity(tag: DW_TAG_imported_declaration, scope: !5, entity: !890, file: !827, line: 58)
!890 = !DISubprogram(name: "fseek", scope: !834, file: !834, line: 270, type: !891, flags: DIFlagPrototyped, spFlags: DISPFlagOptimized)
!891 = !DISubroutineType(types: !892)
!892 = !{!6, !840, !893, !6}
!893 = !DIBasicType(name: "long int", size: 32, encoding: DW_ATE_signed)
!894 = !DIImportedEntity(tag: DW_TAG_imported_declaration, scope: !5, entity: !895, file: !827, line: 59)
!895 = !DISubprogram(name: "fsetpos", scope: !834, file: !834, line: 263, type: !896, flags: DIFlagPrototyped, spFlags: DISPFlagOptimized)
!896 = !DISubroutineType(types: !897)
!897 = !{!6, !840, !898}
!898 = !DIDerivedType(tag: DW_TAG_pointer_type, baseType: !899, size: 64)
!899 = !DIDerivedType(tag: DW_TAG_const_type, baseType: !833)
!900 = !DIImportedEntity(tag: DW_TAG_imported_declaration, scope: !5, entity: !901, file: !827, line: 60)
!901 = !DISubprogram(name: "ftell", scope: !834, file: !834, line: 286, type: !902, flags: DIFlagPrototyped, spFlags: DISPFlagOptimized)
!902 = !DISubroutineType(types: !903)
!903 = !{!893, !840}
!904 = !DIImportedEntity(tag: DW_TAG_imported_declaration, scope: !5, entity: !905, file: !827, line: 61)
!905 = !DISubprogram(name: "fwrite", scope: !834, file: !834, line: 297, type: !906, flags: DIFlagPrototyped, spFlags: DISPFlagOptimized)
!906 = !DISubroutineType(types: !907)
!907 = !{!830, !105, !830, !830, !840}
!908 = !DIImportedEntity(tag: DW_TAG_imported_declaration, scope: !5, entity: !909, file: !827, line: 62)
!909 = !DISubprogram(name: "getc", scope: !834, file: !834, line: 306, type: !843, flags: DIFlagPrototyped, spFlags: DISPFlagOptimized)
!910 = !DIImportedEntity(tag: DW_TAG_imported_declaration, scope: !5, entity: !911, file: !827, line: 63)
!911 = !DISubprogram(name: "getchar", scope: !834, file: !834, line: 311, type: !912, flags: DIFlagPrototyped, spFlags: DISPFlagOptimized)
!912 = !DISubroutineType(types: !913)
!913 = !{!6}
!914 = !DIImportedEntity(tag: DW_TAG_imported_declaration, scope: !5, entity: !915, file: !827, line: 64)
!915 = !DISubprogram(name: "perror", scope: !834, file: !834, line: 325, type: !916, flags: DIFlagPrototyped, spFlags: DISPFlagOptimized)
!916 = !DISubroutineType(types: !917)
!917 = !{null, !31}
!918 = !DIImportedEntity(tag: DW_TAG_imported_declaration, scope: !5, entity: !919, file: !827, line: 65)
!919 = !DISubprogram(name: "putc", scope: !834, file: !834, line: 347, type: !873, flags: DIFlagPrototyped, spFlags: DISPFlagOptimized)
!920 = !DIImportedEntity(tag: DW_TAG_imported_declaration, scope: !5, entity: !921, file: !827, line: 66)
!921 = !DISubprogram(name: "putchar", scope: !834, file: !834, line: 353, type: !922, flags: DIFlagPrototyped, spFlags: DISPFlagOptimized)
!922 = !DISubroutineType(types: !923)
!923 = !{!6, !6}
!924 = !DIImportedEntity(tag: DW_TAG_imported_declaration, scope: !5, entity: !925, file: !827, line: 67)
!925 = !DISubprogram(name: "printf", scope: !834, file: !834, line: 950, type: !926, flags: DIFlagPrototyped, spFlags: DISPFlagOptimized)
!926 = !DISubroutineType(types: !927)
!927 = !{!6, !302, null}
!928 = !DIImportedEntity(tag: DW_TAG_imported_declaration, scope: !5, entity: !929, file: !827, line: 68)
!929 = !DISubprogram(name: "puts", scope: !834, file: !834, line: 358, type: !930, flags: DIFlagPrototyped, spFlags: DISPFlagOptimized)
!930 = !DISubroutineType(types: !931)
!931 = !{!6, !31}
!932 = !DIImportedEntity(tag: DW_TAG_imported_declaration, scope: !5, entity: !933, file: !827, line: 69)
!933 = !DISubprogram(name: "remove", scope: !834, file: !834, line: 369, type: !930, flags: DIFlagPrototyped, spFlags: DISPFlagOptimized)
!934 = !DIImportedEntity(tag: DW_TAG_imported_declaration, scope: !5, entity: !935, file: !827, line: 70)
!935 = !DISubprogram(name: "rename", scope: !834, file: !834, line: 374, type: !936, flags: DIFlagPrototyped, spFlags: DISPFlagOptimized)
!936 = !DISubroutineType(types: !937)
!937 = !{!6, !31, !31}
!938 = !DIImportedEntity(tag: DW_TAG_imported_declaration, scope: !5, entity: !939, file: !827, line: 71)
!939 = !DISubprogram(name: "rewind", scope: !834, file: !834, line: 392, type: !838, flags: DIFlagPrototyped, spFlags: DISPFlagOptimized)
!940 = !DIImportedEntity(tag: DW_TAG_imported_declaration, scope: !5, entity: !941, file: !827, line: 72)
!941 = !DISubprogram(name: "scanf", scope: !834, file: !834, line: 1276, type: !926, flags: DIFlagPrototyped, spFlags: DISPFlagOptimized)
!942 = !DIImportedEntity(tag: DW_TAG_imported_declaration, scope: !5, entity: !943, file: !827, line: 73)
!943 = !DISubprogram(name: "setbuf", scope: !834, file: !834, line: 400, type: !944, flags: DIFlagPrototyped, spFlags: DISPFlagOptimized)
!944 = !DISubroutineType(types: !945)
!945 = !{null, !840, !22}
!946 = !DIImportedEntity(tag: DW_TAG_imported_declaration, scope: !5, entity: !947, file: !827, line: 74)
!947 = !DISubprogram(name: "setvbuf", scope: !834, file: !834, line: 412, type: !948, flags: DIFlagPrototyped, spFlags: DISPFlagOptimized)
!948 = !DISubroutineType(types: !949)
!949 = !{!6, !840, !22, !6, !830}
!950 = !DIImportedEntity(tag: DW_TAG_imported_declaration, scope: !5, entity: !951, file: !827, line: 75)
!951 = !DISubprogram(name: "sprintf", scope: !834, file: !834, line: 1783, type: !952, flags: DIFlagPrototyped, spFlags: DISPFlagOptimized)
!952 = !DISubroutineType(types: !953)
!953 = !{!6, !22, !31, null}
!954 = !DIImportedEntity(tag: DW_TAG_imported_declaration, scope: !5, entity: !955, file: !827, line: 76)
!955 = !DISubprogram(name: "sscanf", scope: !834, file: !834, line: 2240, type: !956, flags: DIFlagPrototyped, spFlags: DISPFlagOptimized)
!956 = !DISubroutineType(types: !957)
!957 = !{!6, !302, !302, null}
!958 = !DIImportedEntity(tag: DW_TAG_imported_declaration, scope: !5, entity: !959, file: !827, line: 77)
!959 = !DISubprogram(name: "tmpfile", scope: !834, file: !834, line: 435, type: !960, flags: DIFlagPrototyped, spFlags: DISPFlagOptimized)
!960 = !DISubroutineType(types: !961)
!961 = !{!840}
!962 = !DIImportedEntity(tag: DW_TAG_imported_declaration, scope: !5, entity: !963, file: !827, line: 78)
!963 = !DISubprogram(name: "tmpnam", scope: !834, file: !834, line: 443, type: !964, flags: DIFlagPrototyped, spFlags: DISPFlagOptimized)
!964 = !DISubroutineType(types: !965)
!965 = !{!22, !22}
!966 = !DIImportedEntity(tag: DW_TAG_imported_declaration, scope: !5, entity: !967, file: !827, line: 79)
!967 = !DISubprogram(name: "ungetc", scope: !834, file: !834, line: 451, type: !873, flags: DIFlagPrototyped, spFlags: DISPFlagOptimized)
!968 = !DIImportedEntity(tag: DW_TAG_imported_declaration, scope: !5, entity: !969, file: !827, line: 80)
!969 = !DISubprogram(name: "vfprintf", scope: !834, file: !834, line: 650, type: !970, flags: DIFlagPrototyped, spFlags: DISPFlagOptimized)
!970 = !DISubroutineType(types: !971)
!971 = !{!6, !870, !302, !972}
!972 = !DIDerivedType(tag: DW_TAG_typedef, name: "va_list", file: !25, line: 72, baseType: !22)
!973 = !DIImportedEntity(tag: DW_TAG_imported_declaration, scope: !5, entity: !974, file: !827, line: 81)
!974 = !DISubprogram(name: "vprintf", scope: !834, file: !834, line: 740, type: !975, flags: DIFlagPrototyped, spFlags: DISPFlagOptimized)
!975 = !DISubroutineType(types: !976)
!976 = !{!6, !302, !972}
!977 = !DIImportedEntity(tag: DW_TAG_imported_declaration, scope: !5, entity: !978, file: !827, line: 82)
!978 = !DISubprogram(name: "vsprintf", scope: !834, file: !834, line: 1783, type: !979, flags: DIFlagPrototyped, spFlags: DISPFlagOptimized)
!979 = !DISubroutineType(types: !980)
!980 = !{!6, !22, !31, !972}
!981 = !DIImportedEntity(tag: DW_TAG_imported_declaration, scope: !5, entity: !982, file: !827, line: 84)
!982 = !DISubprogram(name: "snprintf", scope: !834, file: !834, line: 1919, type: !983, flags: DIFlagPrototyped, spFlags: DISPFlagOptimized)
!983 = !DISubroutineType(types: !984)
!984 = !{!6, !97, !985, !302, null}
!985 = !DIDerivedType(tag: DW_TAG_const_type, baseType: !830)
!986 = !DIImportedEntity(tag: DW_TAG_imported_declaration, scope: !5, entity: !987, file: !827, line: 85)
!987 = !DISubprogram(name: "vsnprintf", scope: !834, file: !834, line: 1429, type: !988, flags: DIFlagPrototyped, spFlags: DISPFlagOptimized)
!988 = !DISubroutineType(types: !989)
!989 = !{!6, !97, !985, !302, !972}
!990 = !DIImportedEntity(tag: DW_TAG_imported_declaration, scope: !5, entity: !991, file: !827, line: 86)
!991 = !DISubprogram(name: "vfscanf", scope: !834, file: !834, line: 1072, type: !970, flags: DIFlagPrototyped, spFlags: DISPFlagOptimized)
!992 = !DIImportedEntity(tag: DW_TAG_imported_declaration, scope: !5, entity: !993, file: !827, line: 87)
!993 = !DISubprogram(name: "vscanf", scope: !834, file: !834, line: 1136, type: !975, flags: DIFlagPrototyped, spFlags: DISPFlagOptimized)
!994 = !DIImportedEntity(tag: DW_TAG_imported_declaration, scope: !5, entity: !995, file: !827, line: 88)
!995 = !DISubprogram(name: "vsscanf", scope: !834, file: !834, line: 2160, type: !996, flags: DIFlagPrototyped, spFlags: DISPFlagOptimized)
!996 = !DISubroutineType(types: !997)
!997 = !{!6, !302, !302, !972}
!998 = !DIImportedEntity(tag: DW_TAG_imported_declaration, scope: !5, entity: !830, file: !999, line: 25)
!999 = !DIFile(filename: "C:\\Program Files (x86)\\Microsoft Visual Studio\\2019\\Community\\VC\\Tools\\MSVC\\14.28.29910\\include\\cstring", directory: "", checksumkind: CSK_MD5, checksum: "8836d22258dd0dcd58ea9d9763256c9c")
!1000 = !DIImportedEntity(tag: DW_TAG_imported_declaration, scope: !5, entity: !1001, file: !999, line: 26)
!1001 = !DISubprogram(name: "memchr", linkageName: "?memchr@@YAPEAXPEAXH_K@Z", scope: !1002, file: !1002, line: 104, type: !1003, flags: DIFlagPrototyped, spFlags: DISPFlagOptimized)
!1002 = !DIFile(filename: "C:\\Program Files (x86)\\Windows Kits\\10\\Include\\10.0.19041.0\\ucrt\\corecrt_memory.h", directory: "", checksumkind: CSK_MD5, checksum: "0b971aeac8757ee8ec347a03047c3b4a")
!1003 = !DISubroutineType(types: !1004)
!1004 = !{!26, !26, !6, !830}
!1005 = !DIImportedEntity(tag: DW_TAG_imported_declaration, scope: !5, entity: !1006, file: !999, line: 27)
!1006 = !DISubprogram(name: "memcmp", scope: !1007, file: !1007, line: 29, type: !1008, flags: DIFlagPrototyped, spFlags: DISPFlagOptimized)
!1007 = !DIFile(filename: "C:\\Program Files (x86)\\Microsoft Visual Studio\\2019\\Community\\VC\\Tools\\MSVC\\14.28.29910\\include\\vcruntime_string.h", directory: "", checksumkind: CSK_MD5, checksum: "a54b085ffcc86a11803fd825bf8abeaa")
!1008 = !DISubroutineType(types: !1009)
!1009 = !{!6, !105, !105, !830}
!1010 = !DIImportedEntity(tag: DW_TAG_imported_declaration, scope: !5, entity: !1011, file: !999, line: 28)
!1011 = !DISubprogram(name: "memcpy", scope: !1007, file: !1007, line: 43, type: !1012, flags: DIFlagPrototyped, spFlags: DISPFlagOptimized)
!1012 = !DISubroutineType(types: !1013)
!1013 = !{!26, !26, !105, !830}
!1014 = !DIImportedEntity(tag: DW_TAG_imported_declaration, scope: !5, entity: !1015, file: !999, line: 29)
!1015 = !DISubprogram(name: "memmove", scope: !1007, file: !1007, line: 50, type: !1012, flags: DIFlagPrototyped, spFlags: DISPFlagOptimized)
!1016 = !DIImportedEntity(tag: DW_TAG_imported_declaration, scope: !5, entity: !1017, file: !999, line: 30)
!1017 = !DISubprogram(name: "memset", scope: !1007, file: !1007, line: 63, type: !1003, flags: DIFlagPrototyped, spFlags: DISPFlagOptimized)
!1018 = !DIImportedEntity(tag: DW_TAG_imported_declaration, scope: !5, entity: !1019, file: !999, line: 31)
!1019 = !DISubprogram(name: "strcat", scope: !1020, file: !1020, line: 91, type: !1021, flags: DIFlagPrototyped, spFlags: DISPFlagOptimized)
!1020 = !DIFile(filename: "C:\\Program Files (x86)\\Windows Kits\\10\\Include\\10.0.19041.0\\ucrt\\string.h", directory: "", checksumkind: CSK_MD5, checksum: "9f780e8d323a4f33b8c61853c3c9471c")
!1021 = !DISubroutineType(types: !1022)
!1022 = !{!22, !22, !31}
!1023 = !DIImportedEntity(tag: DW_TAG_imported_declaration, scope: !5, entity: !1024, file: !999, line: 32)
!1024 = !DISubprogram(name: "strchr", linkageName: "?strchr@@YAPEADQEADH@Z", scope: !1020, file: !1020, line: 500, type: !1025, flags: DIFlagPrototyped, spFlags: DISPFlagOptimized)
!1025 = !DISubroutineType(types: !1026)
!1026 = !{!22, !97, !1027}
!1027 = !DIDerivedType(tag: DW_TAG_const_type, baseType: !6)
